(dp0
I0
V\u6cea
p1
sI1
V\u5ce3
p2
sI2
V\u542b
p3
sI3
V\u6da3
p4
sI4
V\u912b
p5
sI5
V\u68ea
p6
sI6
V\u4e95
p7
sI7
V\u8bf2
p8
sI8
V\u534e
p9
sI9
V\u98d9
p10
sI10
V\u9a82
p11
sI11
V\u4fd0
p12
sI12
V\u502d
p13
sI13
V\u80a2
p14
sI14
V\u821e
p15
sI15
V\u5824
p16
sI16
V\u7887
p17
sI17
V\u4ef7
p18
sI18
V\u718f
p19
sI19
V\u891a
p20
sI20
V\u634e
p21
sI21
V\u9aa2
p22
sI22
V\u6f75
p23
sI23
V\u56b7
p24
sI24
V\u7275
p25
sI25
V\u795b
p26
sI26
V\u82b9
p27
sI27
V\u6027
p28
sI28
V\u6edf
p29
sI29
V\u5f57
p30
sI30
V\u74a8
p31
sI31
V\u9aa5
p32
sI32
V\u672b
p33
sI33
V\u5a7a
p34
sI34
V\u51c0
p35
sI35
V\u7281
p36
sI36
V\u56de
p37
sI37
V\u5c48
p39
sI39
V\u82c7
p40
sI40
V\u7434
p41
sI41
V\u559d
p42
sI42
V\u7167
p43
sI43
V\u7802
p44
sI44
V\u879f
p45
sI45
V\u8f9c
p46
sI46
V\u821f
p47
sI47
V\u5f6d
p48
sI48
V\u78b2
p49
sI49
V\u586d
p50
sI50
V\u5a62
p51
sI51
V\u6934
p52
sI52
V\u6487
p53
sI53
V\u6de6
p54
sI54
V\u58a8
p55
sI55
V\u5a20
p56
sI56
V\u8bc3
p57
sI57
V\u8679
p58
sI58
V\u94a7
p59
sI59
V\u6d04
p60
sI60
V\u8f96
p61
sI61
V\u5cd7
p62
sI62
V\u4f3d
p63
sI63
V\u8671
p64
sI64
V\u8180
p65
sI65
V\u53d7
p66
sI66
V\u60e9
p67
sI67
V\u8272
p68
sI68
V\u7a33
p69
sI69
V\u5706
p70
sI70
V\u62a0
p71
sI71
V\u9f13
p72
sI72
V\u933e
p73
sI73
V\u9ca2
p74
sI74
V\u9122
p75
sI75
V\u7a46
p76
sI76
V\u7b0f
p77
sI77
V\u9165
p78
sI78
V\u9e35
p79
sI79
V\u7947
p80
sI80
V\u72ac
p81
sI81
V\u5b9e
p82
sI82
V\u5ba1
p83
sI83
V\u900a
p84
sI84
V\u671f
p85
sI85
V\u832f
p86
sI86
V\u5195
p87
sI87
V\u5486
p88
sI88
V\u90a3
p89
sI89
V\u5749
p90
sI90
V\u742c
p91
sI91
V\u6258
p92
sI92
V\u9546
p93
sI93
V\u7fb9
p94
sI94
V\u84c9
p95
sI95
V\u620a
p96
sI96
V\u7684
p97
sI97
V\u6849
p98
sI98
V\u8232
p99
sI99
V\u6696
p100
sI100
V\u516c
p101
sI101
V\u5353
p102
sI102
V\u63e3
p103
sI103
V\u6c4a
p104
sI104
V\u53d6
p105
sI105
V\u6301
p106
sI106
V\u621f
p107
sI107
V\u5323
p108
sI108
V\u6743
p109
sI109
V\u6c90
p110
sI110
V\u6772
p111
sI111
V\u5761
p112
sI112
V\u8d1f
p113
sI113
V\u94ae
p114
sI114
V\u5fb7
p115
sI115
V\u9b03
p116
sI116
V\u7070
p117
sI117
V\u7237
p118
sI118
V\u5de6
p119
sI119
V\u9c9f
p120
sI120
V\u89c4
p121
sI121
V\u5f27
p122
sI122
V\u7252
p123
sI123
V\u7814
p124
sI124
V\u80cc
p125
sI125
V\u6e54
p126
sI126
V\u818a
p127
sI127
V\u65e7
p128
sI128
V\u9046
p129
sI129
V\u4f51
p130
sI130
V\u5413
p131
sI131
V\u62cd
p132
sI132
V\u910c
p133
sI133
V\u8d4a
p134
sI134
V\u52a8
p135
sI135
V\u6811
p136
sI136
V\u79fb
p137
sI137
V\u52c3
p138
sI138
V\u5406
p139
sI139
V\u5760
p140
sI140
V\u526a
p141
sI141
V\u6843
p142
sI142
V\u90e8
p143
sI143
V\u9003
p144
sI144
V\u7eaa
p145
sI145
V\u7f28
p146
sI146
V\u79c6
p147
sI147
V\u59d3
p148
sI148
V\u62ef
p149
sI149
V\u7cb3
p150
sI150
V\u5e92
p151
sI151
V\u51b0
p152
sI152
V\u502a
p153
sI153
V\u7bc7
p154
sI154
V\u4ec4
p155
sI155
V\u6083
p156
sI156
V\u741a
p157
sI157
V\u6d3c
p158
sI158
V\u80c0
p159
sI159
V\u501f
p160
sI160
V\u84ed
p161
sI161
V\u4e1d
p162
sI162
V\u70d8
p163
sI163
V\u65e9
p164
sI164
V\u59ec
p165
sI165
V\u6233
p166
sI166
V\u6d1b
p167
sI167
V\u8288
p168
sI168
V\u6e53
p169
sI169
V\u7eea
p170
sI170
V\u5e0f
p171
sI171
V\u66fe
p172
sI172
V\u8564
p173
sI173
V\u6e7e
p174
sI174
V\u7583
p175
sI175
V\u73e5
p176
sI176
V\u8c30
p177
sI177
V\u7bb4
p178
sI178
V\u7827
p179
sI179
V\u6985
p180
sI180
V\u5efa
p181
sI181
V\u5e90
p182
sI182
V\u5390
p183
sI183
V\u7a17
p184
sI184
V\u65e0
p185
sI185
V\u4f40
p186
sI186
V\u7f6e
p187
sI187
V\u66e6
p188
sI188
V\u57d5
p189
sI189
V\u772d
p190
sI190
V\u5ad2
p191
sI191
V\u5f18
p192
sI192
V\u5bb9
p193
sI193
V\u500c
p194
sI194
V\u8785
p195
sI195
V\u827e
p196
sI196
V\u56a3
p197
sI197
V\u86ed
p198
sI198
V\u7faf
p199
sI199
V\u6254
p200
sI200
V\u7629
p201
sI201
V\u8f82
p202
sI202
V\u690d
p203
sI203
V\u6f58
p204
sI204
V\u95f3
p205
sI205
V\u96a7
p206
sI206
V\u4eac
p207
sI207
V\u55a6
p208
sI208
V\u7c16
p209
sI209
V\u5e16
p210
sI210
V\u8715
p211
sI211
V\u4e93
p212
sI212
V\u8f78
p213
sI213
V\u7b77
p214
sI214
V\u8bae
p215
sI215
V\u5fb5
p216
sI216
V\u78a7
p217
sI217
V\u5145
p218
sI218
V\u6d3b
p219
sI219
V\u8d2a
p220
sI220
V\u5ea6
p221
sI221
V\u9a90
p222
sI222
V\u6e58
p223
sI223
V\u5185
p224
sI224
V\u90ef
p225
sI225
V\u7b7e
p226
sI226
V\u62bf
p227
sI227
V\u6df7
p228
sI228
V\u781f
p229
sI229
V\u8534
p230
sI230
V\u7905
p231
sI231
V\u6b96
p232
sI232
V\u85a4
p233
sI233
V\u6055
p234
sI234
V\u5229
p235
sI235
V\u4e24
p236
sI236
V\u871a
p237
sI237
V\u64ad
p238
sI238
V\u717d
p239
sI239
V\u6c55
p240
sI240
V\u74ef
p241
sI241
V\u987e
p242
sI242
V\u8f70
p243
sI243
V\u9635
p244
sI244
V\u6cb3
p245
sI245
V\u798f
p246
sI246
V\u52d2
p247
sI247
V\u7490
p248
sI248
V\u65a1
p249
sI249
V\u4e59
p250
sI250
V\u7aa0
p251
sI251
V\u5a0c
p252
sI252
V\u5acc
p253
sI253
V\u5f35
p254
sI254
V\u5b81
p255
sI255
V\u82b3
p256
sI256
V\u8840
p257
sI257
V\u5ccb
p258
sI258
V\u6d28
p259
sI259
V\u8bd5
p260
sI260
V\u5408
p261
sI261
V\u5e08
p262
sI262
V\u961d
p263
sI263
V\u6cdb
p264
sI264
V\u6f31
p265
sI265
V\u7624
p266
sI266
V\u835a
p267
sI267
V\u554a
p268
sI268
V\u5180
p269
sI269
V\u716e
p270
sI270
V\u5f55
p271
sI271
V\u9178
p272
sI272
V\u96c5
p273
sI273
V\u4e56
p274
sI274
V\u9500
p275
sI275
V\u73e3
p276
sI276
V\u7444
p277
sI277
V\u611f
p278
sI278
V\u575a
p279
sI279
V\u7eee
p280
sI280
V\u804c
p281
sI281
V\u690e
p282
sI282
V\u4e7e
p283
sI283
V\u8f8a
p284
sI284
V\u8fc4
p285
sI285
V\u7c1d
p286
sI286
V\u99a8
p287
sI287
V\u62cc
p288
sI288
V\u62d0
p289
sI289
V\u8bc4
p290
sI290
V\u611a
p291
sI291
V\u8d20
p292
sI292
V\u5ed3
p293
sI293
V\u6fe0
p294
sI294
V\u8d38
p295
sI295
V\u665f
p296
sI296
V\u78a3
p297
sI297
V\u6c9f
p298
sI298
V\u9511
p299
sI299
V\u73ea
p300
sI300
V\u903b
p301
sI301
V\u97f5
p302
sI302
V\u78c2
p303
sI303
V\u7f8e
p304
sI304
V\u7ec5
p305
sI305
V\u5499
p306
sI306
V\u7c89
p307
sI307
V\u5793
p308
sI308
V\u94e0
p309
sI309
V\u90d7
p310
sI310
V\u6f72
p311
sI311
V\u692d
p312
sI312
V\u9e4f
p313
sI313
V\u6773
p314
sI314
V\u8028
p315
sI315
V\u80e4
p316
sI316
V\u8475
p317
sI317
V\u5373
p318
sI318
V\u6ca6
p319
sI319
V\u5951
p320
sI320
V\u4e0e
p321
sI321
V\u7ed5
p322
sI322
V\u4e1c
p323
sI323
V\u5e02
p324
sI324
V\u89e6
p325
sI325
V\u86d4
p326
sI326
V\u9607
p327
sI327
V\u84ec
p328
sI328
V\u585d
p329
sI329
V\u7761
p330
sI330
V\u65bc
p331
sI331
V\u592c
p332
sI332
V\u4f19
p333
sI333
V\u520a
p334
sI334
V\u654c
p335
sI335
V\u80f3
p336
sI336
V\u74a9
p337
sI337
V\u6ce2
p338
sI338
V\u8138
p339
sI339
V\u70b8
p340
sI340
V\u7280
p341
sI341
V\u64a9
p342
sI342
V\u7cb1
p343
sI343
V\u7406
p344
sI344
V\u8033
p345
sI345
V\u530f
p346
sI346
V\u544a
p347
sI347
V\u9756
p348
sI348
V\u5f82
p349
sI349
V\u4ef6
p350
sI350
V\u57c3
p351
sI351
V\u5043
p352
sI352
V\u68bd
p353
sI353
V\u8d62
p354
sI354
V\u5378
p355
sI355
V\u56fe
p356
sI356
V\u9879
p357
sI357
V\u9972
p358
sI358
V\u57b4
p359
sI359
V\u864e
p360
sI360
V\u6db8
p361
sI361
V\u4eba
p362
sI362
V\u55c5
p363
sI363
V\u6bbf
p364
sI364
V\u532e
p365
sI365
V\u9975
p366
sI366
V\u82ef
p367
sI367
V\u857e
p368
sI368
V\u755b
p369
sI369
V\u8398
p370
sI370
V\u827a
p371
sI371
V\u848b
p372
sI372
V\u5757
p373
sI373
V\u62b5
p374
sI374
V\u6296
p375
sI375
V\u9601
p376
sI376
V\u8497
p377
sI377
V\u8200
p378
sI378
V\u6748
p379
sI379
V\u6cad
p380
sI380
V\u7957
p381
sI381
V\u8042
p382
sI382
V\u5842
p383
sI383
V\u85fb
p384
sI384
V\u539a
p385
sI385
V\u9091
p386
sI386
V\u738d
p387
sI387
V\u675e
p388
sI388
V\u975b
p389
sI389
V\u84ff
p390
sI390
V\u96c4
p391
sI391
V\u704c
p392
sI392
V\u70ae
p393
sI393
V\u74ee
p394
sI394
V\u5475
p395
sI395
V\u589f
p396
sI396
V\u7554
p397
sI397
V\u7913
p398
sI398
V\u7a3c
p399
sI399
V\u6863
p400
sI400
V\u5e72
p401
sI401
V\u5cb7
p402
sI402
V\u7a51
p403
sI403
V\u8c0f
p404
sI404
V\u6376
p405
sI405
V\u951a
p406
sI406
V\u9a86
p407
sI407
V\u6d3d
p408
sI408
V\u62d7
p409
sI409
V\u72b8
p410
sI410
V\u69fd
p411
sI411
V\u90b5
p412
sI412
V\u6002
p413
sI413
V\u5c90
p414
sI414
V\u5dc5
p415
sI415
V\u8f6d
p416
sI416
V\u63a8
p417
sI417
V\u915e
p418
sI418
V\u9886
p419
sI419
V\u6444
p420
sI420
V\u6ce5
p421
sI421
V\u8f90
p422
sI422
V\u5fff
p423
sI423
V\u6d4d
p424
sI424
V\u94da
p425
sI425
V\u63a9
p426
sI426
V\u4eeb
p427
sI427
V\u659f
p428
sI428
V\u6577
p429
sI429
V\u79ba
p430
sI430
V\u6c87
p431
sI431
V\u8652
p432
sI432
V\u9c7c
p433
sI433
V\u5c4f
p434
sI434
V\u75ea
p435
sI435
V\u64de
p436
sI436
V\u4ff5
p437
sI437
V\u56f7
p438
sI438
V\u7940
p439
sI439
V\u4e52
p440
sI440
V\u55fd
p441
sI441
V\u5844
p442
sI442
V\u67b3
p443
sI443
V\u8c61
p444
sI444
V\u4fef
p445
sI445
V\u667e
p446
sI446
V\u8ffd
p447
sI447
V\u8029
p448
sI448
V\u8845
p449
sI449
V\u7aef
p450
sI450
V\u7ecd
p451
sI451
V\u6b65
p452
sI452
V\u4ee3
p453
sI453
V\u6c72
p454
sI454
V\u9a9d
p455
sI455
V\u62db
p456
sI456
V\u7511
p457
sI457
V\u75ab
p458
sI458
V\u715e
p459
sI459
V\u7b71
p460
sI460
V\u51ae
p461
sI461
V\u95ef
p462
sI462
V\u9f99
p463
sI463
V\u7a57
p464
sI464
V\u7350
p465
sI465
V\u65ed
p466
sI466
V\u80e7
p467
sI467
V\u6905
p468
sI468
V\u8702
p469
sI469
V\u7693
p470
sI470
V\u85ae
p471
sI471
V\u53c2
p472
sI472
V\u82f2
p473
sI473
V\u74e3
p474
sI474
V\u806a
p475
sI475
V\u5fd9
p476
sI476
V\u9e20
p477
sI477
V\u6251
p478
sI478
V\u5888
p479
sI479
V\u4f01
p480
sI480
V\u5d19
p481
sI481
V\u8dd1
p482
sI482
V\u5f2d
p483
sI483
V\u678a
p484
sI484
V\u9522
p485
sI485
V\u66b4
p486
sI486
V\u5c55
p487
sI487
V\u83ba
p488
sI488
V\u988a
p489
sI489
V\u8be3
p490
sI490
V\u6342
p491
sI491
V\u5b99
p492
sI492
V\u78f3
p493
sI493
V\u8235
p494
sI494
V\u5a01
p495
sI495
V\u620f
p496
sI496
V\u7ca4
p497
sI497
V\u9a71
p498
sI498
V\u4ea1
p499
sI499
V\u62a1
p500
sI500
V\u6491
p501
sI501
V\u9035
p502
sI502
V\u7fbc
p503
sI503
V\u6ce8
p504
sI504
V\u576c
p505
sI505
V\u8bfe
p506
sI506
V\u66ae
p507
sI507
V\u752a
p508
sI508
V\u8299
p509
sI509
V\u53fc
p510
sI510
V\u6298
p511
sI511
V\u917f
p512
sI512
V\u62dc
p513
sI513
V\u8d28
p514
sI514
V\u987a
p515
sI515
V\u9897
p516
sI516
V\u54fc
p517
sI517
V\u9e22
p518
sI518
V\u973e
p519
sI519
V\u5ae9
p520
sI520
V\u8ba2
p521
sI521
V\u6f69
p522
sI522
V\u6e46
p523
sI523
V\u8857
p524
sI524
V\u5662
p525
sI525
V\u846b
p526
sI526
V\u6a47
p527
sI527
V\u5b09
p528
sI528
V\u5156
p529
sI529
V\u516e
p530
sI530
V\u5c3d
p531
sI531
V\u5ff1
p532
sI532
V\u53d2
p533
sI533
V\u728b
p534
sI534
V\u804b
p535
sI535
V\u8870
p536
sI536
V\u74a0
p537
sI537
V\u91dc
p538
sI538
V\u591c
p539
sI539
V\u6073
p540
sI540
V\u4f83
p541
sI541
V\u96c9
p542
sI542
V\u8925
p543
sI543
V\u9a6c
p544
sI544
V\u5fcf
p545
sI545
V\u809b
p546
sI546
V\u7199
p547
sI547
V\u60c5
p548
sI548
V\u83f1
p549
sI549
V\u67fd
p550
sI550
V\u901e
p551
sI551
V\u7b94
p552
sI552
V\u68da
p553
sI553
V\u7cef
p554
sI554
V\u73ae
p555
sI555
V\u60b2
p556
sI556
V\u96cd
p557
sI557
V\u5265
p558
sI558
V\u7720
p559
sI559
V\u535e
p560
sI560
V\u80dc
p561
sI561
V\u964d
p562
sI562
V\u4f4f
p563
sI563
V\u5b5b
p564
sI564
V\u8e81
p565
sI565
V\u5751
p566
sI566
V\u572a
p567
sI567
V\u6e81
p568
sI568
V\u62fc
p569
sI569
V\u51cb
p570
sI570
V\u90b3
p571
sI571
V\u5993
p572
sI572
V\u4e4e
p573
sI573
V\u84d3
p574
sI574
V\u807f
p575
sI575
V\u6aa0
p576
sI576
V\u8d4e
p577
sI577
V\u7fd8
p578
sI578
V\u5ca2
p579
sI579
V\u95eb
p580
sI580
V\u7817
p581
sI581
V\u5ab3
p582
sI582
V\u5773
p583
sI583
V\u4e2a
p584
sI584
V\u9093
p585
sI585
V\u9893
p586
sI586
V\u57a4
p587
sI587
V\u7391
p588
sI588
V\u6daf
p589
sI589
V\u5f5d
p590
sI590
V\u8bf0
p591
sI591
V\u75b5
p592
sI592
V\u6833
p593
sI593
V\u6e20
p594
sI594
V\u636e
p595
sI595
V\u6094
p596
sI596
V\u547b
p597
sI597
V\u632f
p598
sI598
V\u4f6f
p599
sI599
V\u51ff
p600
sI600
V\u5455
p601
sI601
V\u5356
p602
sI602
V\u64d2
p603
sI603
V\u4f59
p604
sI604
V\u6e86
p605
sI605
V\u809a
p606
sI606
V\u8574
p607
sI607
V\u7586
p608
sI608
V\u62e9
p609
sI609
V\u7719
p610
sI610
V\u6995
p611
sI611
V\u6865
p612
sI612
V\u8be6
p613
sI613
V\u6b66
p614
sI614
V\u580c
p615
sI615
V\u6c1f
p616
sI616
V\u4e19
p617
sI617
V\u4ec5
p618
sI618
V\u5c06
p619
sI619
V\u674f
p620
sI620
V\u5f92
p621
sI621
V\u53ea
p622
sI622
V\u55d2
p623
sI623
V\u9605
p624
sI624
V\u62ff
p625
sI625
V\u585e
p626
sI626
V\u9753
p627
sI627
V\u6837
p628
sI628
V\u6570
p629
sI629
V\u6636
p630
sI630
V\u83a8
p631
sI631
V\u51e4
p632
sI632
V\u7464
p633
sI633
V\u84c1
p634
sI634
V\u696b
p635
sI635
V\u5144
p636
sI636
V\u5728
p637
sI637
V\u82e6
p638
sI638
V\u8317
p639
sI639
V\u6ecd
p640
sI640
V\u6c48
p641
sI641
V\u566c
p642
sI642
V\u57b2
p643
sI643
V\u50b2
p644
sI644
V\u7b28
p645
sI645
V\u5db7
p646
sI646
V\u7b52
p647
sI647
V\u5b6a
p648
sI648
V\u5243
p649
sI649
V\u55b3
p650
sI650
V\u5854
p651
sI651
V\u5fcd
p652
sI652
V\u4fa0
p653
sI653
V\u4f8d
p654
sI654
V\u90ca
p655
sI655
V\u857b
p656
sI656
V\u996d
p657
sI657
V\u840c
p658
sI658
V\u5021
p659
sI659
V\u9704
p660
sI660
V\u6e17
p661
sI661
V\u912f
p662
sI662
V\u592f
p663
sI663
V\u8baf
p664
sI664
V\u916c
p665
sI665
V\u9705
p666
sI666
V\u5598
p667
sI667
V\u5d14
p668
sI668
V\u84dd
p669
sI669
V\u7811
p670
sI670
V\u6f74
p671
sI671
V\u7bfe
p672
sI672
V\u5883
p673
sI673
V\u4f69
p674
sI674
V\u534a
p675
sI675
V\u7ee5
p676
sI676
V\u681f
p677
sI677
V\u8d3c
p678
sI678
V\u607c
p679
sI679
V\u94ec
p680
sI680
V\u5224
p681
sI681
V\u778e
p682
sI682
V\u5306
p683
sI683
V\u82cd
p684
sI684
V\u8fa3
p685
sI685
V\u8d27
p686
sI686
V\u645e
p687
sI687
V\u809c
p688
sI688
V\u5609
p689
sI689
V\u5ccf
p690
sI690
V\u7203
p691
sI691
V\u5447
p692
sI692
V\u86fe
p693
sI693
V\u742a
p694
sI694
V\u705e
p695
sI695
V\u5211
p696
sI696
V\u9700
p697
sI697
V\u5ba5
p698
sI698
V\u7409
p699
sI699
V\u7459
p700
sI700
V\u74e4
p701
sI701
V\u6f7a
p702
sI702
V\u5ffd
p703
sI703
V\u8695
p704
sI704
V\u977c
p705
sI705
V\u57a3
p706
sI706
V\u66a7
p707
sI707
V\u5b93
p708
sI708
V\u5409
p709
sI709
V\u7460
p710
sI710
V\u74e6
p711
sI711
V\u5904
p712
sI712
V\u89e3
p713
sI713
V\u66f9
p714
sI714
V\u6247
p715
sI715
V\u5925
p716
sI716
V\u84d6
p717
sI717
V\u5c98
p718
sI718
V\u6401
p719
sI719
V\u52a9
p720
sI720
V\u4e3d
p721
sI721
V\u949f
p722
sI722
V\u6c8f
p723
sI723
V\u9e42
p724
sI724
V\u8bab
p725
sI725
V\u91ae
p726
sI726
V\u6309
p727
sI727
V\u9a9f
p728
sI728
V\u4e1b
p729
sI729
V\u8bb0
p730
sI730
V\u6866
p731
sI731
V\u6615
p732
sI732
V\u8e47
p733
sI733
V\u6c7d
p734
sI734
V\u8db1
p735
sI735
V\u803d
p736
sI736
V\u6495
p737
sI737
V\u578b
p738
sI738
V\u5f71
p739
sI739
V\u94bf
p740
sI740
V\u8001
p741
sI741
V\u5d06
p742
sI742
V\u73ab
p743
sI743
V\u64c2
p744
sI744
V\u5f36
p745
sI745
V\u5f95
p746
sI746
V\u7820
p747
sI747
V\u9012
p748
sI748
V\u5bd2
p749
sI749
V\u7433
p750
sI750
V\u62e3
p751
sI751
V\u759f
p752
sI752
V\u5360
p753
sI753
V\u950c
p754
sI754
V\u5895
p755
sI755
V\u7c92
p756
sI756
V\u712f
p757
sI757
V\u5cfb
p758
sI758
V\u79e6
p759
sI759
V\u8bbe
p760
sI760
V\u8d37
p761
sI761
V\u6d0a
p762
sI762
V\u6f8c
p763
sI763
V\u8c22
p764
sI764
V\u948f
p765
sI765
V\u6c7e
p766
sI766
V\u7428
p767
sI767
V\u60b8
p768
sI768
V\u95ea
p769
sI769
V\u80e5
p770
sI770
V\u73bb
p771
sI771
V\u6bcd
p772
sI772
V\u6b83
p773
sI773
V\u8f89
p774
sI774
V\u517c
p775
sI775
V\u609f
p776
sI776
V\u8587
p777
sI777
V\u63fd
p778
sI778
V\u680e
p779
sI779
V\u5187
p780
sI780
V\u62ec
p781
sI781
V\u7984
p782
sI782
V\u61be
p783
sI783
V\u6bd2
p784
sI784
V\u5953
p785
sI785
V\u52bf
p786
sI786
V\u6dcc
p787
sI787
V\u6dc0
p788
sI788
V\u69da
p789
sI789
V\u8c6a
p790
sI790
V\u6267
p791
sI791
V\u5ae1
p792
sI792
V\u6052
p793
sI793
V\u8174
p794
sI794
V\u7ea0
p795
sI795
V\u5f00
p796
sI796
V\u867b
p797
sI797
V\u7206
p798
sI798
V\u6241
p799
sI799
V\u95f4
p800
sI800
V\u5c16
p801
sI801
V\u5316
p802
sI802
V\u86c6
p803
sI803
V\u8b26
p804
sI804
V\u63a5
p805
sI805
V\u909b
p806
sI806
V\u9504
p807
sI807
V\u63e9
p808
sI808
V\u5151
p809
sI809
V\u5c18
p810
sI810
V\u5df2
p811
sI811
V\u7766
p812
sI812
V\u783c
p813
sI813
V\u9996
p814
sI814
V\u696e
p815
sI815
V\u989b
p816
sI816
V\u8986
p817
sI817
V\u574f
p818
sI818
V\u65cb
p819
sI819
V\u664c
p820
sI820
V\u9b41
p821
sI821
V\u6a58
p822
sI822
V\u8363
p823
sI823
V\u7838
p824
sI824
V\u749e
p825
sI825
V\u6361
p826
sI826
V\u6482
p827
sI827
V\u9e66
p828
sI828
V\u5d1b
p829
sI829
V\u5506
p830
sI830
V\u8d6b
p831
sI831
V\u98e8
p832
sI832
V\u8680
p833
sI833
V\u6787
p834
sI834
V\u5146
p835
sI835
V\u8be7
p836
sI836
V\u8d23
p837
sI837
V\u7877
p838
sI838
V\u673d
p839
sI839
V\u7f26
p840
sI840
V\u7eb7
p841
sI841
V\u68c9
p842
sI842
V\u9a96
p843
sI843
V\u8717
p844
sI844
V\u6d93
p845
sI845
V\u7a0b
p846
sI846
V\u9540
p847
sI847
V\u9c8e
p848
sI848
V\u89d2
p849
sI849
V\u6d82
p850
sI850
V\u8c37
p851
sI851
V\u67a8
p852
sI852
V\u5d85
p853
sI853
V\u9547
p854
sI854
V\u7b0b
p855
sI855
V\u8fdc
p856
sI856
V\u90e1
p857
sI857
V\u84fc
p858
sI858
V\u6f06
p859
sI859
V\u8eaf
p860
sI860
V\u54fa
p861
sI861
V\u7194
p862
sI862
V\u987d
p863
sI863
V\u76cf
p864
sI864
V\u6ec2
p865
sI865
V\u6f4b
p866
sI866
V\u874e
p867
sI867
V\u5bc4
p869
sI869
V\u9e2a
p870
sI870
V\u70b9
p871
sI871
V\u5c11
p872
sI872
V\u85c9
p873
sI873
V\u70ed
p874
sI874
V\u5140
p875
sI875
V\u86f8
p876
sI876
V\u6fb3
p877
sI877
V\u77e5
p878
sI878
V\u724c
p879
sI879
V\u8f88
p880
sI880
V\u9f8b
p881
sI881
V\u8ff3
p882
sI882
V\u4f1f
p883
sI883
V\u957f
p884
sI884
V\u9006
p885
sI885
V\u76d4
p886
sI886
V\u793e
p887
sI887
V\u77ff
p888
sI888
V\u5f03
p889
sI889
V\u6829
p890
sI890
V\u75b8
p891
sI891
V\u7b38
p892
sI892
V\u67b6
p893
sI893
V\u65c5
p894
sI894
V\u701a
p895
sI895
V\u7cc1
p896
sI896
V\u515a
p897
sI897
V\u9e57
p898
sI898
V\u52e4
p899
sI899
V\u7b20
p900
sI900
V\u9493
p901
sI901
V\u5fbc
p902
sI902
V\u76c6
p903
sI903
V\u6877
p904
sI904
V\u51bb
p905
sI905
V\u65f7
p906
sI906
V\u79c0
p907
sI907
V\u5080
p908
sI908
V\u6eb5
p909
sI909
V\u9e6a
p910
sI910
V\u6800
p911
sI911
V\u8d24
p912
sI912
V\u50a5
p913
sI913
V\u4fe8
p914
sI914
V\u5582
p915
sI915
V\u5942
p916
sI916
V\u663e
p917
sI917
V\u83dc
p918
sI918
V\u73c2
p919
sI919
V\u949c
p920
sI920
V\u7adf
p921
sI921
V\u5bee
p922
sI922
V\u7f06
p923
sI923
V\u7a8e
p924
sI924
V\u51dd
p925
sI925
V\u5bb4
p926
sI926
V\u90b0
p927
sI927
V\u9697
p928
sI928
V\u9f7f
p929
sI929
V\u962e
p930
sI930
V\u7f07
p931
sI931
V\u6001
p932
sI932
V\u593f
p933
sI933
V\u4e14
p934
sI934
V\u6b20
p935
sI935
V\u714c
p936
sI936
V\u8821
p937
sI937
V\u7559
p938
sI938
V\u7aa6
p939
sI939
V\u8309
p940
sI940
V\u9131
p941
sI941
V\u5261
p942
sI942
V\u6c10
p943
sI943
V\u873b
p944
sI944
V\u7fbf
p945
sI945
V\u6070
p946
sI946
V\u4f46
p947
sI947
V\u6587
p948
sI948
V\u7c98
p949
sI949
V\u56db
p950
sI950
V\u5956
p951
sI951
V\u809d
p952
sI952
V\uff08
p953
sI953
V\u6876
p954
sI954
V\u7b4f
p955
sI955
V\u6248
p956
sI956
V\u575b
p957
sI957
V\u4f8f
p958
sI958
V\u4e01
p959
sI959
V\u8fdd
p960
sI960
V\u679e
p961
sI961
V\u8d35
p962
sI962
V\u7241
p963
sI963
V\u5e7b
p964
sI964
V\u59dc
p965
sI965
V\u8c24
p966
sI966
V\u6d74
p967
sI967
V\u82cf
p968
sI968
V\u9616
p969
sI969
V\u7035
p970
sI970
V\u5893
p971
sI971
V\u5f62
p972
sI972
V\u822b
p973
sI973
V\u77f4
p974
sI974
V\u594e
p975
sI975
V\u559c
p976
sI976
V\u540a
p977
sI977
V\u67a2
p978
sI978
V\u6e1d
p979
sI979
V\u6a0a
p980
sI980
V\u8305
p981
sI981
V\u8fab
p982
sI982
V\u4f64
p983
sI983
V\u9176
p984
sI984
V\u6c88
p985
sI985
V\u9875
p986
sI986
V\u80f0
p987
sI987
V\u53f2
p988
sI988
V\u5750
p989
sI989
V\u63b0
p990
sI990
V\u7f18
p991
sI991
V\u5c94
p992
sI992
V\u5dee
p993
sI993
V\u69bb
p994
sI994
V\u8e7f
p995
sI995
V\u6cbc
p996
sI996
V\u7934
p997
sI997
V\u628a
p998
sI998
V\u94f0
p999
sI999
V\u8303
p1000
sI1000
V\u6fe1
p1001
sI1001
V\u503a
p1002
sI1002
V\u53e5
p1003
sI1003
V\u4fc3
p1004
sI1004
V\u859b
p1005
sI1005
V\u8461
p1006
sI1006
V\u99ac
p1007
sI1007
V\u998d
p1008
sI1008
V\u7c15
p1009
sI1009
V\u5154
p1010
sI1010
V\u5bbf
p1011
sI1011
V\u7948
p1012
sI1012
V\u6cc9
p1013
sI1013
V\u56fd
p1014
sI1014
V\u803b
p1015
sI1015
V\u6b67
p1016
sI1016
V\u59da
p1017
sI1017
V\u7949
p1018
sI1018
V\u5e38
p1019
sI1019
V\u582a
p1020
sI1020
V\u52d8
p1021
sI1021
V\u9965
p1022
sI1022
V\u9100
p1023
sI1023
V\u789c
p1024
sI1024
V\u88d4
p1025
sI1025
V\u54d2
p1026
sI1026
V\u83b7
p1027
sI1027
V\u6d23
p1028
sI1028
V\u4e07
p1029
sI1029
V\u5bb0
p1030
sI1030
V\u8083
p1031
sI1031
V\u8f86
p1032
sI1032
V\u644a
p1033
sI1033
V\u6911
p1034
sI1034
V\u65f6
p1035
sI1035
V\u61a9
p1036
sI1036
V\u6b21
p1037
sI1037
V\u7c4d
p1038
sI1038
V\u5636
p1039
sI1039
V\u75bd
p1040
sI1040
V\u8fb0
p1041
sI1041
V\u58a0
p1042
sI1042
V\u6868
p1043
sI1043
V\u7950
p1044
sI1044
V\u6760
p1045
sI1045
V\u583d
p1046
sI1046
V\u73de
p1047
sI1047
V\u4e53
p1048
sI1048
V\u65ab
p1049
sI1049
V\u9505
p1050
sI1050
V\u7536
p1051
sI1051
V\u9609
p1052
sI1052
V\u7a7f
p1053
sI1053
V\u5c45
p1054
sI1054
V\u8944
p1055
sI1055
V\u6d50
p1056
sI1056
V\u6e25
p1057
sI1057
V\u591a
p1058
sI1058
V\u6339
p1059
sI1059
V\u7a9c
p1060
sI1060
V\u5ebe
p1061
sI1061
V\u8fce
p1062
sI1062
V\u5742
p1063
sI1063
V\u6e0e
p1064
sI1064
V\u8537
p1065
sI1065
V\u8239
p1066
sI1066
V\u962a
p1067
sI1067
V\u678b
p1068
sI1068
V\u6775
p1069
sI1069
V\u8d21
p1070
sI1070
V\u9985
p1071
sI1071
V\u53ed
p1072
sI1072
V\u7425
p1073
sI1073
V\u5192
p1074
sI1074
V\u640f
p1075
sI1075
V\u93d6
p1076
sI1076
V\u60af
p1077
sI1077
V\u960a
p1078
sI1078
V\u5d11
p1079
sI1079
V\u76d2
p1080
sI1080
V\u6d85
p1081
sI1081
V\u5e45
p1082
sI1082
V\u5f25
p1083
sI1083
V\u6f5c
p1084
sI1084
V\u7812
p1085
sI1085
V\u8c78
p1086
sI1086
V\u7bf1
p1087
sI1087
V\u5b9a
p1088
sI1088
V\u82a6
p1089
sI1089
V\u4e45
p1090
sI1090
V\u5143
p1091
sI1091
V\u98d8
p1092
sI1092
V\u6c86
p1093
sI1093
V\u65af
p1094
sI1094
V\u539d
p1095
sI1095
V\u5d9d
p1096
sI1096
V\u5cea
p1097
sI1097
V\u8bef
p1098
sI1098
V\u8fb9
p1099
sI1099
V\u60ed
p1100
sI1100
V\u7089
p1101
sI1101
V\u83bd
p1102
sI1102
V\u6328
p1103
sI1103
V\u4e4c
p1104
sI1104
V\u8fdb
p1105
sI1105
V\u674e
p1106
sI1106
V\u4eae
p1107
sI1107
V\u73cd
p1108
sI1108
V\u5938
p1109
sI1109
V\u53cb
p1110
sI1110
V\u5b63
p1111
sI1111
V\u5434
p1112
sI1112
V\u4edd
p1113
sI1113
V\u82ab
p1114
sI1114
V\u63d0
p1115
sI1115
V\u6dde
p1116
sI1116
V\u80de
p1117
sI1117
V\u8d53
p1118
sI1118
V\u6311
p1119
sI1119
V\u8018
p1120
sI1120
V\u75a1
p1121
sI1121
V\u68b0
p1122
sI1122
V\u5d20
p1123
sI1123
V\u545b
p1124
sI1124
V\u6d34
p1125
sI1125
V\u8b66
p1126
sI1126
V\u5b54
p1127
sI1127
V\u8bba
p1128
sI1128
V\u9063
p1129
sI1129
V\u7430
p1130
sI1130
V\u86a3
p1131
sI1131
V\u7eba
p1132
sI1132
V\u9640
p1133
sI1133
V\u68c6
p1134
sI1134
V\u587e
p1135
sI1135
V\u6784
p1136
sI1136
V\u8511
p1137
sI1137
V\u7b15
p1138
sI1138
V\u79a7
p1139
sI1139
V\u67f1
p1140
sI1140
V\u728d
p1141
sI1141
V\u5739
p1142
sI1142
V\u94a9
p1143
sI1143
V\u5347
p1144
sI1144
V\u9cd9
p1145
sI1145
V\u915a
p1146
sI1146
V\u3007
p1147
sI1147
V\u574d
p1148
sI1148
V\u67c1
p1149
sI1149
V\u72de
p1150
sI1150
V\u6977
p1151
sI1151
V\u9611
p1152
sI1152
V\u693f
p1153
sI1153
V\u7f14
p1154
sI1154
V\u6679
p1155
sI1155
V\u6518
p1156
sI1156
V\u610d
p1157
sI1157
V\u4efb
p1158
sI1158
V\u9e64
p1159
sI1159
V\u594b
p1160
sI1160
V\u7f6a
p1161
sI1161
V\u50d6
p1162
sI1162
V\u6e4d
p1163
sI1163
V\u8721
p1164
sI1164
V\u4f9d
p1165
sI1165
V\u5a29
p1166
sI1166
V\u9cb8
p1167
sI1167
V\u56eb
p1168
sI1168
V\u5e1a
p1169
sI1169
V\u6454
p1170
sI1170
V\u65ef
p1171
sI1171
V\u7a47
p1172
sI1172
V\u566a
p1173
sI1173
V\u770b
p1174
sI1174
V\u722a
p1175
sI1175
V\u6c83
p1176
sI1176
V\u683c
p1177
sI1177
V\u7caa
p1178
sI1178
V\u8713
p1179
sI1179
V\u6619
p1180
sI1180
V\u9881
p1181
sI1181
V\u6148
p1182
sI1182
V\u6076
p1183
sI1183
V\u5366
p1184
sI1184
V\u8bfd
p1185
sI1185
V\u4e34
p1186
sI1186
V\u7ff1
p1187
sI1187
V\u82d2
p1188
sI1188
V\u5964
p1189
sI1189
V\u6d5e
p1190
sI1190
V\u7aff
p1191
sI1191
V\u5177
p1192
sI1192
V\u8054
p1193
sI1193
V\u68f0
p1194
sI1194
V\u8fbf
p1195
sI1195
V\u5f81
p1196
sI1196
V\u62c8
p1197
sI1197
V\u733f
p1198
sI1198
V\u839c
p1199
sI1199
V\u80a9
p1200
sI1200
V\u865e
p1201
sI1201
V\u9744
p1202
sI1202
V\u6d32
p1203
sI1203
V\u6025
p1204
sI1204
V\u5ae6
p1205
sI1205
V\u6467
p1206
sI1206
V\u954d
p1207
sI1207
V\u53ca
p1208
sI1208
V\u6043
p1209
sI1209
V\u8bb4
p1210
sI1210
V\u7313
p1211
sI1211
V\u73a2
p1212
sI1212
V\u9677
p1213
sI1213
V\u73c8
p1214
sI1214
V\u4f5f
p1215
sI1215
V\u814b
p1216
sI1216
V\u8bca
p1217
sI1217
V\u7638
p1218
sI1218
V\u51eb
p1219
sI1219
V\u91d1
p1220
sI1220
V\u606c
p1221
sI1221
V\u5c3f
p1222
sI1222
V\u8774
p1223
sI1223
V\u94a5
p1224
sI1224
V\u5fc6
p1225
sI1225
V\u78c1
p1226
sI1226
V\u4e86
p1227
sI1227
V\u4fda
p1228
sI1228
V\u5809
p1229
sI1229
V\u626a
p1230
sI1230
V\u6d63
p1231
sI1231
V\u5d4e
p1232
sI1232
V\u631f
p1233
sI1233
V\u8364
p1234
sI1234
V\u9488
p1235
sI1235
V\u8378
p1236
sI1236
V\u9631
p1237
sI1237
V\u9716
p1238
sI1238
V\u731c
p1239
sI1239
V\u94bc
p1240
sI1240
V\u9ebe
p1241
sI1241
V\u80b4
p1242
sI1242
V\u9152
p1243
sI1243
V\u5170
p1244
sI1244
V\u8f67
p1245
sI1245
V\u7ce0
p1246
sI1246
V\u9147
p1247
sI1247
V\u61d2
p1248
sI1248
V\u91ce
p1249
sI1249
V\u8f68
p1250
sI1250
V\u80aa
p1251
sI1251
V\u795c
p1252
sI1252
V\u782d
p1253
sI1253
V\u7115
p1254
sI1254
V\u6168
p1255
sI1255
V\u6d77
p1256
sI1256
V\u90ae
p1257
sI1257
V\u629f
p1258
sI1258
V\u718a
p1259
sI1259
V\u5f64
p1260
sI1260
V\u67c4
p1261
sI1261
V\u829f
p1262
sI1262
V\u6041
p1263
sI1263
V\u6210
p1264
sI1264
V\u745b
p1265
sI1265
V\u83d6
p1266
sI1266
V\u715c
p1267
sI1267
V\u7b2f
p1268
sI1268
V\u5a34
p1269
sI1269
V\u60ee
p1270
sI1270
V\u7f08
p1271
sI1271
V\u4f5c
p1272
sI1272
V\u7c91
p1273
sI1273
V\u50da
p1274
sI1274
V\u75ae
p1275
sI1275
V\u8d3b
p1276
sI1276
V\u972d
p1277
sI1277
V\u73ba
p1278
sI1278
V\u8a31
p1279
sI1279
V\u62ab
p1280
sI1280
V\u8d22
p1281
sI1281
V\u84ca
p1282
sI1282
V\u5305
p1283
sI1283
V\u8017
p1284
sI1284
V\u7ecf
p1285
sI1285
V\u54aa
p1286
sI1286
V\u8e1e
p1287
sI1287
V\u5339
p1288
sI1288
V\u4f1e
p1289
sI1289
V\u6761
p1290
sI1290
V\u54b1
p1291
sI1291
V\u62d3
p1292
sI1292
V\u8d64
p1293
sI1293
V\u8ba3
p1294
sI1294
V\u83c9
p1295
sI1295
V\u5570
p1296
sI1296
V\u6e8f
p1297
sI1297
V\u4e3b
p1298
sI1298
V\u791e
p1299
sI1299
V\u8822
p1300
sI1300
V\u549a
p1301
sI1301
V\u7307
p1302
sI1302
V\u7c27
p1303
sI1303
V\u6d6d
p1304
sI1304
V\u639b
p1305
sI1305
V\u59ff
p1306
sI1306
V\u9e92
p1307
sI1307
V\u68c0
p1308
sI1308
V\u960e
p1309
sI1309
V\u7bab
p1310
sI1310
V\u4f09
p1311
sI1311
V\u8ff9
p1312
sI1312
V\u8ff4
p1313
sI1313
V\u6b4c
p1314
sI1314
V\u8fde
p1315
sI1315
V\u96c7
p1316
sI1316
V\u754e
p1317
sI1317
V\u9a85
p1318
sI1318
V\u95fe
p1319
sI1319
V\u68f2
p1320
sI1320
V\u4f2a
p1321
sI1321
V\u9afb
p1322
sI1322
V\u9119
p1323
sI1323
V\u53ec
p1324
sI1324
V\u9e37
p1325
sI1325
V\u74d2
p1326
sI1326
V\u7fe1
p1327
sI1327
V\u5498
p1328
sI1328
V\u5e1b
p1329
sI1329
V\u4faf
p1330
sI1330
V\u8008
p1331
sI1331
V\u580e
p1332
sI1332
V\u54a8
p1333
sI1333
V\u585a
p1334
sI1334
V\u8d4f
p1335
sI1335
V\u75db
p1336
sI1336
V\u79cb
p1337
sI1337
V\u5c4a
p1338
sI1338
V\u80f6
p1339
sI1339
V\u74f7
p1340
sI1340
V\u5fe4
p1341
sI1341
V\u76d1
p1342
sI1342
V\u8bfa
p1343
sI1343
V\u707e
p1344
sI1344
V\u8859
p1345
sI1345
V\u95c7
p1346
sI1346
V\u6ed8
p1347
sI1347
V\u7fbd
p1348
sI1348
V\u5cd9
p1349
sI1349
V\u968d
p1350
sI1350
V\u5802
p1351
sI1351
V\u57cb
p1352
sI1352
V\u69ad
p1353
sI1353
V\u6654
p1354
sI1354
V\u8058
p1355
sI1355
V\u655e
p1356
sI1356
V\u70af
p1357
sI1357
V\u63a2
p1358
sI1358
V\u70eb
p1359
sI1359
V\u75be
p1360
sI1360
V\u526f
p1361
sI1361
V\u631d
p1362
sI1362
V\u75de
p1363
sI1363
V\u64a4
p1364
sI1364
V\u956b
p1365
sI1365
V\u81c0
p1366
sI1366
V\u8538
p1367
sI1367
V\u72c2
p1368
sI1368
V\u579a
p1369
sI1369
V\u6734
p1370
sI1370
V\u8165
p1371
sI1371
V\u5819
p1372
sI1372
V\u912e
p1373
sI1373
V\u574c
p1374
sI1374
V\u643a
p1375
sI1375
V\u738b
p1376
sI1376
V\u8ba1
p1377
sI1377
V\u6a44
p1378
sI1378
V\u903e
p1379
sI1379
V\u5be8
p1380
sI1380
V\u7166
p1381
sI1381
V\u76c2
p1382
sI1382
V\u8517
p1383
sI1383
V\u8c0d
p1384
sI1384
V\u8f9f
p1385
sI1385
V\u9002
p1386
sI1386
V\u714e
p1387
sI1387
V\u6c5e
p1388
sI1388
V\u5bc6
p1389
sI1389
V\u8fa9
p1390
sI1390
V\u94e1
p1391
sI1391
V\u5c79
p1392
sI1392
V\u5f02
p1393
sI1393
V\u51fb
p1394
sI1394
V\u61a8
p1395
sI1395
V\u7acb
p1396
sI1396
V\u68b5
p1397
sI1397
V\u618b
p1398
sI1398
V\u5564
p1399
sI1399
V\u8868
p1400
sI1400
V\u672c
p1401
sI1401
V\u4f10
p1402
sI1402
V\u7ffb
p1403
sI1403
V\u6731
p1404
sI1404
V\u8f99
p1405
sI1405
V\u574b
p1406
sI1406
V\u64c5
p1407
sI1407
V\u522b
p1408
sI1408
V\u90a6
p1409
sI1409
V\u50e7
p1410
sI1410
V\u8ba8
p1411
sI1411
V\u763e
p1412
sI1412
V\u529f
p1413
sI1413
V\u642a
p1414
sI1414
V\u679d
p1415
sI1415
V\u5dfd
p1416
sI1416
V\u6279
p1417
sI1417
V\u6fc0
p1418
sI1418
V\u538b
p1419
sI1419
V\u918d
p1420
sI1420
V\u9cd8
p1421
sI1421
V\u6770
p1422
sI1422
V\u5cd2
p1423
sI1423
V\u5b70
p1424
sI1424
V\u6447
p1425
sI1425
V\u5c1d
p1426
sI1426
V\u598d
p1427
sI1427
V\u6410
p1428
sI1428
V\u6a56
p1429
sI1429
V\u6302
p1430
sI1430
V\u5423
p1431
sI1431
V\u8bb9
p1432
sI1432
V\u553e
p1433
sI1433
V\u5649
p1434
sI1434
V\u7407
p1435
sI1435
V\u5b69
p1436
sI1436
V\u5584
p1437
sI1437
V\u6127
p1438
sI1438
V\u6ee5
p1439
sI1439
V\u8308
p1440
sI1440
V\u767d
p1441
sI1441
V\u7b3c
p1442
sI1442
V\u8314
p1443
sI1443
V\u64b5
p1444
sI1444
V\u7ef3
p1445
sI1445
V\u53df
p1446
sI1446
V\u67d8
p1447
sI1447
V\u69ca
p1448
sI1448
V\u828a
p1449
sI1449
V\u8db4
p1450
sI1450
V\u5427
p1451
sI1451
V\u54ff
p1452
sI1452
V\u8c6b
p1453
sI1453
V\u748e
p1454
sI1454
V\u8d1e
p1455
sI1455
V\u852c
p1456
sI1456
V\u5c27
p1457
sI1457
V\u7011
p1458
sI1458
V\u7b60
p1459
sI1459
V\u65b9
p1460
sI1460
V\u6dab
p1461
sI1461
V\u59d0
p1462
sI1462
V\u5c04
p1463
sI1463
V\u5175
p1464
sI1464
V\u8368
p1465
sI1465
V\u7a8a
p1466
sI1466
V\u8be5
p1467
sI1467
V\u5851
p1468
sI1468
V\u9499
p1469
sI1469
V\u6969
p1470
sI1470
V\u7498
p1471
sI1471
V\u78e1
p1472
sI1472
V\u58d1
p1473
sI1473
V\u90ac
p1474
sI1474
V\u5165
p1475
sI1475
V\u541e
p1476
sI1476
V\u64ae
p1477
sI1477
V\u6ddd
p1478
sI1478
V\u575c
p1479
sI1479
V\u5351
p1480
sI1480
V\u7d0a
p1481
sI1481
V\u790c
p1482
sI1482
V\u5ce4
p1483
sI1483
V\u57a7
p1484
sI1484
V\u5d4b
p1485
sI1485
V\u7c41
p1486
sI1486
V\u72f8
p1487
sI1487
V\u7a0d
p1488
sI1488
V\u784a
p1489
sI1489
V\u810a
p1490
sI1490
V\u8fe5
p1491
sI1491
V\u629b
p1492
sI1492
V\u9c87
p1493
sI1493
V\u753b
p1494
sI1494
V\u7fcc
p1495
sI1495
V\u4fa7
p1496
sI1496
V\u52aa
p1497
sI1497
V\u7267
p1498
sI1498
V\u6096
p1499
sI1499
V\u9760
p1500
sI1500
V\u784d
p1501
sI1501
V\u6d4b
p1502
sI1502
V\u54b8
p1503
sI1503
V\u8bda
p1504
sI1504
V\u7a79
p1505
sI1505
V\u680f
p1506
sI1506
V\u7ee6
p1507
sI1507
V\u4e70
p1508
sI1508
V\u696a
p1509
sI1509
V\u9ece
p1510
sI1510
V\u7504
p1511
sI1511
V\u7f00
p1512
sI1512
V\u8fd3
p1513
sI1513
V\u7856
p1514
sI1514
V\u670f
p1515
sI1515
V\u7272
p1516
sI1516
V\u8003
p1517
sI1517
V\u7edc
p1518
sI1518
V\u7f81
p1519
sI1519
V\u8131
p1520
sI1520
V\u5426
p1521
sI1521
V\u4fbf
p1522
sI1522
V\u6de0
p1523
sI1523
V\u8bd1
p1524
sI1524
V\u98ce
p1525
sI1525
V\u83b2
p1526
sI1526
V\u73a5
p1527
sI1527
V\u5220
p1528
sI1528
V\u606a
p1529
sI1529
V\u53f5
p1530
sI1530
V\u8f72
p1531
sI1531
V\u80a0
p1532
sI1532
V\u7fce
p1533
sI1533
V\u8983
p1534
sI1534
V\u8d76
p1535
sI1535
V\u90c4
p1536
sI1536
V\u5960
p1537
sI1537
V\u8d4b
p1538
sI1538
V\u54a4
p1539
sI1539
V\u5f66
p1540
sI1540
V\u78cf
p1541
sI1541
V\u6c61
p1542
sI1542
V\u6789
p1543
sI1543
V\u7119
p1544
sI1544
V\u8f74
p1545
sI1545
V\u9174
p1546
sI1546
V\u55d3
p1547
sI1547
V\u8d39
p1548
sI1548
V\u723d
p1549
sI1549
V\u8bbf
p1550
sI1550
V\u9f10
p1551
sI1551
V\u7897
p1552
sI1552
V\u726e
p1553
sI1553
V\u7fa1
p1554
sI1554
V\u95ed
p1555
sI1555
V\u7663
p1556
sI1556
V\u4f34
p1557
sI1557
V\u5f88
p1558
sI1558
V\u7b54
p1559
sI1559
V\u7be6
p1560
sI1560
V\u9274
p1561
sI1561
V\u540f
p1562
sI1562
V\u5148
p1563
sI1563
V\u5976
p1564
sI1564
V\u5e73
p1565
sI1565
V\u80da
p1566
sI1566
V\u8504
p1567
sI1567
V\u82d8
p1568
sI1568
V\u6217
p1569
sI1569
V\u88f9
p1570
sI1570
V\u5174
p1571
sI1571
V\u86a4
p1572
sI1572
V\u8c0c
p1573
sI1573
V\u51b8
p1574
sI1574
V\u5e99
p1575
sI1575
V\u6ee9
p1576
sI1576
V\u7a3d
p1577
sI1577
V\u6d3a
p1578
sI1578
V\u5784
p1579
sI1579
V\u6ee0
p1580
sI1580
V\u77fc
p1581
sI1581
V\u6291
p1582
sI1582
V\u73c0
p1583
sI1583
V\u8638
p1584
sI1584
V\u732b
p1585
sI1585
V\u6d25
p1586
sI1586
V\u88c2
p1587
sI1587
V\u8d5a
p1588
sI1588
V\u5d6c
p1589
sI1589
V\u6c57
p1590
sI1590
V\u869c
p1591
sI1591
V\u94c1
p1592
sI1592
V\u538d
p1593
sI1593
V\u7094
p1594
sI1594
V\u541f
p1595
sI1595
V\u5cb3
p1596
sI1596
V\u9701
p1597
sI1597
V\u5782
p1598
sI1598
V\u6478
p1599
sI1599
V\u787f
p1600
sI1600
V\u6674
p1601
sI1601
V\u8e0a
p1602
sI1602
V\u4ec3
p1603
sI1603
V\u5b98
p1604
sI1604
V\u5e93
p1605
sI1605
V\u7ea6
p1606
sI1606
V\u9c82
p1607
sI1607
V\u50f0
p1608
sI1608
V\u822c
p1609
sI1609
V\u6346
p1610
sI1610
V\u662d
p1611
sI1611
V\u6cca
p1612
sI1612
V\u4f30
p1613
sI1613
V\u70ec
p1614
sI1614
V\u83ca
p1615
sI1615
V\u590d
p1616
sI1616
V\u6653
p1617
sI1617
V\u98a0
p1618
sI1618
V\u58c6
p1619
sI1619
V\u6df3
p1620
sI1620
V\u9e5a
p1621
sI1621
V\u7039
p1622
sI1622
V\u58f9
p1623
sI1623
V\u523b
p1624
sI1624
V\u9022
p1625
sI1625
V\u755c
p1626
sI1626
V\u9655
p1627
sI1627
V\u798a
p1628
sI1628
V\u971e
p1629
sI1629
V\u8d70
p1630
sI1630
V\u8fe4
p1631
sI1631
V\u72d7
p1632
sI1632
V\u4fae
p1633
sI1633
V\u51f9
p1634
sI1634
V\u5dcd
p1635
sI1635
V\u7f0e
p1636
sI1636
V\u4f4d
p1637
sI1637
V\u970f
p1638
sI1638
V\u81fc
p1639
sI1639
V\u94d9
p1640
sI1640
V\u576b
p1641
sI1641
V\u57ae
p1642
sI1642
V\u8298
p1643
sI1643
V\u59e8
p1644
sI1644
V\u6c1b
p1646
sI1646
V\u626b
p1647
sI1647
V\u6f2a
p1648
sI1648
V\u9999
p1649
sI1649
V\u5806
p1650
sI1650
V\u62c2
p1651
sI1651
V\u952e
p1652
sI1652
V\u5b51
p1653
sI1653
V\u5f97
p1654
sI1654
V\u693d
p1655
sI1655
V\u627f
p1656
sI1656
V\u7c07
p1657
sI1657
V\u5371
p1658
sI1658
V\u727a
p1659
sI1659
V\u76f2
p1660
sI1660
V\u52d6
p1661
sI1661
V\u6c6a
p1662
sI1662
V\u62d4
p1663
sI1663
V\u5d07
p1664
sI1664
V\u9a8b
p1665
sI1665
V\u6388
p1666
sI1666
V\u6c6b
p1667
sI1667
V\u6d4e
p1668
sI1668
V\u96f3
p1669
sI1669
V\u708a
p1670
sI1670
V\u4ea6
p1671
sI1671
V\u5820
p1672
sI1672
V\u5916
p1673
sI1673
V\u6273
p1674
sI1674
V\u8244
p1675
sI1675
V\u635e
p1676
sI1676
V\u6d22
p1677
sI1677
V\u4fce
p1678
sI1678
V\u51ef
p1679
sI1679
V\u6f88
p1680
sI1680
V\u786e
p1681
sI1681
V\u5f69
p1682
sI1682
V\u5c91
p1683
sI1683
V\u6c5d
p1684
sI1684
V\u795e
p1685
sI1685
V\u6609
p1686
sI1686
V\u90b8
p1687
sI1687
V\u9065
p1688
sI1688
V\u7a14
p1689
sI1689
V\u51f8
p1690
sI1690
V\u80be
p1691
sI1691
V\u5e9e
p1692
sI1692
V\u5f70
p1693
sI1693
V\u6eba
p1694
sI1694
V\u78ca
p1695
sI1695
V\u563f
p1696
sI1696
V\u7455
p1697
sI1697
V\u918b
p1698
sI1698
V\u7b80
p1699
sI1699
V\u8216
p1700
sI1700
V\u6c41
p1701
sI1701
V\u8e29
p1702
sI1702
V\u5b88
p1703
sI1703
V\u5385
p1704
sI1704
V\u6f46
p1705
sI1705
V\u8212
p1706
sI1706
V\u7ea4
p1707
sI1707
V\u4f58
p1708
sI1708
V\u5b66
p1709
sI1709
V\u60a3
p1710
sI1710
V\u5b9c
p1711
sI1711
V\u996e
p1712
sI1712
V\u7efc
p1713
sI1713
V\u5072
p1714
sI1714
V\u946b
p1715
sI1715
V\u7ae6
p1716
sI1716
V\u808c
p1717
sI1717
V\u9694
p1718
sI1718
V\u6817
p1719
sI1719
V\u88ab
p1720
sI1720
V\u5978
p1721
sI1721
V\u629a
p1722
sI1722
V\u745f
p1723
sI1723
V\u529e
p1724
sI1724
V\u79b9
p1725
sI1725
V\u8dea
p1726
sI1726
V\u4e92
p1727
sI1727
V\u565c
p1728
sI1728
V\u5828
p1729
sI1729
V\u7a8d
p1730
sI1730
V\u542e
p1731
sI1731
V\u5efb
p1732
sI1732
V\u5587
p1733
sI1733
V\u817f
p1734
sI1734
V\u8c10
p1735
sI1735
V\u9ce1
p1736
sI1736
V\u6709
p1737
sI1737
V\u79c9
p1738
sI1738
V\u6ca7
p1739
sI1739
V\u8eab
p1740
sI1740
V\u52fa
p1741
sI1741
V\u6dc6
p1742
sI1742
V\u5077
p1743
sI1743
V\u6240
p1744
sI1744
V\u55cf
p1745
sI1745
V\u64bc
p1746
sI1746
V\u724d
p1747
sI1747
V\u98a2
p1748
sI1748
V\u5c4b
p1749
sI1749
V\u8bb2
p1750
sI1750
V\u4e9a
p1751
sI1751
V\u8783
p1752
sI1752
V\u8392
p1753
sI1753
V\u54dd
p1754
sI1754
V\u63a3
p1755
sI1755
V\u571d
p1756
sI1756
V\u6dc7
p1757
sI1757
V\u832b
p1758
sI1758
V\u9ad3
p1759
sI1759
V\u6c42
p1760
sI1760
V\u820c
p1761
sI1761
V\u6867
p1762
sI1762
V\u6d51
p1763
sI1763
V\u7ed2
p1764
sI1764
V\u5a49
p1765
sI1765
V\u864f
p1766
sI1766
V\u8fd9
p1767
sI1767
V\u86cb
p1768
sI1768
V\u5420
p1769
sI1769
V\u58ee
p1770
sI1770
V\u5f17
p1771
sI1771
V\u828d
p1772
sI1772
V\u5cc4
p1773
sI1773
V\u9ed8
p1774
sI1774
V\u6075
p1775
sI1775
V\u75f9
p1776
sI1776
V\u518d
p1777
sI1777
V\u683d
p1778
sI1778
V\u53f6
p1779
sI1779
V\u7a3b
p1780
sI1780
V\u51fc
p1781
sI1781
V\u832c
p1782
sI1782
V\u9cc5
p1783
sI1783
V\u8e44
p1784
sI1784
V\u776b
p1785
sI1785
V\u575d
p1786
sI1786
V\u7efa
p1787
sI1787
V\u902e
p1788
sI1788
V\u7763
p1789
sI1789
V\u8471
p1790
sI1790
V\u6e23
p1791
sI1791
V\u6c3e
p1792
sI1792
V\u8e7e
p1793
sI1793
V\u6710
p1794
sI1794
V\u4e73
p1795
sI1795
V\u574a
p1796
sI1796
V\u6a90
p1797
sI1797
V\u6324
p1798
sI1798
V\u9163
p1799
sI1799
V\u51af
p1800
sI1800
V\u5f0f
p1801
sI1801
V\u57a0
p1802
sI1802
V\u92ae
p1803
sI1803
V\u699b
p1804
sI1804
V\u65fa
p1805
sI1805
V\u96ea
p1806
sI1806
V\u7248
p1807
sI1807
V\u4ea9
p1808
sI1808
V\u6c94
p1809
sI1809
V\u5495
p1810
sI1810
V\u4fdd
p1811
sI1811
V\u8087
p1812
sI1812
V\u5494
p1813
sI1813
V\u9e33
p1814
sI1814
V\u6dee
p1815
sI1815
V\u57dc
p1816
sI1816
V\u71ac
p1817
sI1817
V\u62b9
p1818
sI1818
V\u70df
p1819
sI1819
V\u5a06
p1820
sI1820
V\u5eca
p1821
sI1821
V\u6566
p1822
sI1822
V\u6f34
p1823
sI1823
V\u7f2a
p1824
sI1824
V\u82a5
p1825
sI1825
V\u5c61
p1826
sI1826
V\u537f
p1827
sI1827
V\u6ca1
p1828
sI1828
V\u8bf1
p1829
sI1829
V\u6363
p1830
sI1830
V\u742f
p1831
sI1831
V\u89c1
p1832
sI1832
V\u6d48
p1833
sI1833
V\u871c
p1834
sI1834
V\u700d
p1835
sI1835
V\u81f3
p1836
sI1836
V\u7316
p1837
sI1837
V\u81f4
p1838
sI1838
V\u74e2
p1839
sI1839
V\u7eb8
p1840
sI1840
V\u52a3
p1841
sI1841
V\u8d1d
p1842
sI1842
V\u8c26
p1843
sI1843
V\u57f2
p1844
sI1844
V\u81b3
p1845
sI1845
V\u7cfb
p1846
sI1846
V\u5d1f
p1847
sI1847
V\u4f43
p1848
sI1848
V\u97ed
p1849
sI1849
V\u6e74
p1850
sI1850
V\u59d1
p1851
sI1851
V\u54c7
p1852
sI1852
V\u51c9
p1853
sI1853
V\u871e
p1854
sI1854
V\u6c74
p1855
sI1855
V\u82de
p1856
sI1856
V\u5429
p1857
sI1857
V\u56bc
p1858
sI1858
V\u6e05
p1859
sI1859
V\u83b3
p1860
sI1860
V\u5cc3
p1861
sI1861
V\u57fd
p1862
sI1862
V\u67f3
p1863
sI1863
V\u5179
p1864
sI1864
V\u5668
p1865
sI1865
V\u5bb6
p1866
sI1866
V\u60e6
p1867
sI1867
V\u9d84
p1868
sI1868
V\u9189
p1869
sI1869
V\u543c
p1870
sI1870
V\u4e61
p1871
sI1871
V\u5730
p1872
sI1872
V\u5c0a
p1873
sI1873
V\u5bfa
p1874
sI1874
V\u753d
p1875
sI1875
V\u6d98
p1876
sI1876
V\u788d
p1877
sI1877
V\u68d2
p1878
sI1878
V\u9762
p1879
sI1879
V\u5e94
p1880
sI1880
V\u73b0
p1881
sI1881
V\u6bc1
p1882
sI1882
V\u7eaf
p1883
sI1883
V\u5c42
p1884
sI1884
V\u548e
p1885
sI1885
V\u658b
p1886
sI1886
V\u6d0e
p1887
sI1887
V\u96bd
p1888
sI1888
V\u87c7
p1889
sI1889
V\u9aa4
p1890
sI1890
V\u8f69
p1891
sI1891
V\u84b8
p1892
sI1892
V\u8d25
p1893
sI1893
V\u53d4
p1894
sI1894
V\u76db
p1895
sI1895
V\u75c8
p1896
sI1896
V\u8c28
p1897
sI1897
V\u5777
p1898
sI1898
V\u67ef
p1899
sI1899
V\u8ff7
p1900
sI1900
V\u94dc
p1901
sI1901
V\u68af
p1902
sI1902
V\u77ac
p1903
sI1903
V\u98a7
p1904
sI1904
V\u5827
p1905
sI1905
V\u5bf8
p1906
sI1906
V\u7efe
p1907
sI1907
V\u9492
p1908
sI1908
V\ufeff
p1909
sI1909
V\u7236
p1910
sI1910
V\u87fe
p1911
sI1911
V\u82b0
p1912
sI1912
V\u70db
p1913
sI1913
V\u62f1
p1914
sI1914
V\u90fe
p1915
sI1915
V\u9519
p1916
sI1916
V\u5729
p1917
sI1917
V\u8ddd
p1918
sI1918
V\u7a81
p1919
sI1919
V\u758b
p1920
sI1920
V\u592d
p1921
sI1921
V\u5865
p1922
sI1922
V\u94d8
p1923
sI1923
V\u82a4
p1924
sI1924
V\u7eb3
p1925
sI1925
V\u71b9
p1926
sI1926
V\u5478
p1927
sI1927
V\u6cbb
p1928
sI1928
V\u77ee
p1929
sI1929
V\u9986
p1930
sI1930
V\u68fa
p1931
sI1931
V\u6124
p1932
sI1932
V\u6af8
p1933
sI1933
V\u4f8b
p1934
sI1934
V\u7a96
p1935
sI1935
V\u552c
p1936
sI1936
V\u6fef
p1937
sI1937
V\u5885
p1938
sI1938
V\u8402
p1939
sI1939
V\u6c99
p1940
sI1940
V\u6a3e
p1941
sI1941
V\u6d7f
p1942
sI1942
V\u531d
p1943
sI1943
V\u9898
p1944
sI1944
V\u61e6
p1945
sI1945
V\u755a
p1946
sI1946
V\u706f
p1947
sI1947
V\u816e
p1948
sI1948
V\u6bcb
p1949
sI1949
V\u998f
p1950
sI1950
V\u6269
p1951
sI1951
V\u96cf
p1952
sI1952
V\u5e86
p1953
sI1953
V\u57df
p1954
sI1954
V\u6ee4
p1955
sI1955
V\u78e8
p1956
sI1956
V\u586b
p1957
sI1957
V\u4fac
p1958
sI1958
V\u70ac
p1959
sI1959
V\u7078
p1960
sI1960
V\u7ba1
p1961
sI1961
V\u5bc0
p1962
sI1962
V\u4ed5
p1963
sI1963
V\u541b
p1964
sI1964
V\u5bc2
p1965
sI1965
V\u80f8
p1966
sI1966
V\u83c7
p1967
sI1967
V\u6b63
p1968
sI1968
V\u9e36
p1969
sI1969
V\u5957
p1970
sI1970
V\u6f16
p1971
sI1971
V\u6cf5
p1972
sI1972
V\u597d
p1973
sI1973
V\u6850
p1974
sI1974
V\u8d85
p1975
sI1975
V\u768e
p1976
sI1976
V\u783a
p1977
sI1977
V\u867d
p1978
sI1978
V\u6f29
p1979
sI1979
V\u9739
p1980
sI1980
V\u773c
p1981
sI1981
V\u6797
p1982
sI1982
V\u6e7f
p1983
sI1983
V\u7d20
p1984
sI1984
V\u9e26
p1985
sI1985
V\u85aa
p1986
sI1986
V\u9ed1
p1987
sI1987
V\u6984
p1988
sI1988
V\u79c1
p1989
sI1989
V\u5438
p1990
sI1990
V\u7b5b
p1991
sI1991
V\u8426
p1992
sI1992
V\u6028
p1993
sI1993
V\u6d60
p1994
sI1994
V\u90ce
p1995
sI1995
V\u655b
p1996
sI1996
V\u81e3
p1997
sI1997
V\u7231
p1998
sI1998
V\u795f
p1999
sI1999
V\u8335
p2000
sI2000
V\u7afd
p2001
sI2001
V\u6387
p2002
sI2002
V\u7ad6
p2003
sI2003
V\u83cf
p2004
sI2004
V\u8d4c
p2006
sI2006
V\u85df
p2007
sI2007
V\u60e7
p2008
sI2008
V\u78d0
p2009
sI2009
V\u9142
p2010
sI2010
V\u4ea7
p2011
sI2011
V\u57c7
p2012
sI2012
V\u90d1
p2013
sI2013
V\u6d52
p2014
sI2014
V\u9ccc
p2015
sI2015
V\u4ec6
p2016
sI2016
V\u6daa
p2017
sI2017
V\u5206
p2018
sI2018
V\u9ecd
p2019
sI2019
V\u7c38
p2020
sI2020
V\u7901
p2021
sI2021
V\u86ca
p2022
sI2022
V\u7242
p2023
sI2023
V\u96ce
p2024
sI2024
V\u9610
p2025
sI2025
V\u4fb5
p2026
sI2026
V\u60f6
p2027
sI2027
V\u54e9
p2028
sI2028
V\u5239
p2029
sI2029
V\u7ac2
p2030
sI2030
V\u7740
p2031
sI2031
V\u680b
p2032
sI2032
V\u5e7f
p2033
sI2033
V\u7f50
p2034
sI2034
V\u94d2
p2035
sI2035
V\u4fa5
p2036
sI2036
V\u8c2c
p2037
sI2037
V\u9e2c
p2038
sI2038
V\u513f
p2039
sI2039
V\u5029
p2040
sI2040
V\u7977
p2041
sI2041
V\u8476
p2042
sI2042
V\u78a5
p2043
sI2043
V\u71e5
p2044
sI2044
V\u613f
p2045
sI2045
V\u6c39
p2046
sI2046
V\u6777
p2047
sI2047
V\u671d
p2048
sI2048
V\u6eaa
p2049
sI2049
V\u9a74
p2050
sI2050
V\u77b3
p2051
sI2051
V\u6e34
p2052
sI2052
V\u540d
p2053
sI2053
V\u5d27
p2054
sI2054
V\u6822
p2055
sI2055
V\u6a59
p2056
sI2056
V\u70e8
p2057
sI2057
V\u502e
p2058
sI2058
V\u62c7
p2059
sI2059
V\u75f4
p2060
sI2060
V\u4f7f
p2061
sI2061
V\u66dd
p2062
sI2062
V\u91aa
p2063
sI2063
V\u83e5
p2064
sI2064
V\u828b
p2065
sI2065
V\u9576
p2066
sI2066
V\u576a
p2067
sI2067
V\u8015
p2068
sI2068
V\u9a76
p2069
sI2069
V\u5fae
p2070
sI2070
V\u780d
p2071
sI2071
V\u4f0e
p2072
sI2072
V\u8f91
p2073
sI2073
V\u4ead
p2074
sI2074
V\u5ca0
p2075
sI2075
V\u53e4
p2076
sI2076
V\u8dfb
p2077
sI2077
V\u818f
p2078
sI2078
V\u5708
p2079
sI2079
V\u5f3c
p2080
sI2080
V\u8046
p2081
sI2081
V\u8d9f
p2082
sI2082
V\u6f47
p2083
sI2083
V\u9e39
p2084
sI2084
V\u5162
p2085
sI2085
V\u52b3
p2086
sI2086
V\u51ac
p2087
sI2087
V\u906d
p2088
sI2088
V\u673a
p2089
sI2089
V\u8776
p2090
sI2090
V\u504c
p2091
sI2091
V\u4f9b
p2092
sI2092
V\u6dd7
p2093
sI2093
V\u680c
p2094
sI2094
V\u6ef4
p2095
sI2095
V\u538c
p2096
sI2096
V\u5034
p2097
sI2097
V\u5b7d
p2098
sI2098
V\u6b59
p2099
sI2099
V\u584d
p2100
sI2100
V\u7ede
p2101
sI2101
V\u9651
p2102
sI2102
V\u6f2f
p2103
sI2103
V\u9105
p2104
sI2104
V\u820d
p2105
sI2105
V\u5370
p2106
sI2106
V\u62bd
p2107
sI2107
V\u6d89
p2108
sI2108
V\u8170
p2109
sI2109
V\u6e38
p2110
sI2110
V\u85e8
p2111
sI2111
V\u97f3
p2112
sI2112
V\u9f0e
p2113
sI2113
V\u64ac
p2114
sI2114
V\u7136
p2115
sI2115
V\u50a3
p2116
sI2116
V\u6960
p2117
sI2117
V\u5462
p2118
sI2118
V\u793c
p2119
sI2119
V\u7cbe
p2120
sI2120
V\u701b
p2121
sI2121
V\u581f
p2122
sI2122
V\u78b0
p2123
sI2123
V\u8fc2
p2124
sI2124
V\u4fe1
p2125
sI2125
V\u6b3e
p2126
sI2126
V\u7f09
p2127
sI2127
V\u9149
p2128
sI2128
V\u846d
p2129
sI2129
V\u78d5
p2130
sI2130
V\u8bb6
p2131
sI2131
V\u8ba5
p2132
sI2132
V\u89c9
p2133
sI2133
V\u8605
p2134
sI2134
V\u5747
p2135
sI2135
V\u6708
p2136
sI2136
V\u8358
p2137
sI2137
V\u8a00
p2138
sI2138
V\u7440
p2139
sI2139
V\u79e3
p2140
sI2140
V\u55dc
p2141
sI2141
V\u9644
p2142
sI2142
V\u90cf
p2143
sI2143
V\u6cf6
p2144
sI2144
V\u71c3
p2145
sI2145
V\u7ed1
p2146
sI2146
V\u76ef
p2147
sI2147
V\u843c
p2148
sI2148
V\u6cb8
p2149
sI2149
V\u8bde
p2150
sI2150
V\u5ba2
p2151
sI2151
V\u67ab
p2152
sI2152
V\u9ebb
p2153
sI2153
V\u726f
p2154
sI2154
V\u77e3
p2155
sI2155
V\u523d
p2156
sI2156
V\u8d34
p2157
sI2157
V\u60f9
p2158
sI2158
V\u6994
p2159
sI2159
V\u6a31
p2160
sI2160
V\u529b
p2161
sI2161
V\u5eb5
p2162
sI2162
V\u65a9
p2163
sI2163
V\u6f33
p2164
sI2164
V\u5577
p2165
sI2165
V\u5c01
p2166
sI2166
V\u5e87
p2167
sI2167
V\u53cc
p2168
sI2168
V\u601d
p2169
sI2169
V\u72c4
p2170
sI2170
V\u7301
p2171
sI2171
V\u6750
p2172
sI2172
V\u5320
p2173
sI2173
V\u95e9
p2174
sI2174
V\u7bc1
p2175
sI2175
V\u7b2a
p2176
sI2176
V\u838e
p2177
sI2177
V\u7c32
p2178
sI2178
V\u519b
p2179
sI2179
V\u5361
p2180
sI2180
V\u795a
p2181
sI2181
V\u5f98
p2182
sI2182
V\u9aed
p2183
sI2183
V\u7cb2
p2184
sI2184
V\u98d2
p2185
sI2185
V\u6cf1
p2186
sI2186
V\u8038
p2187
sI2187
V\u5676
p2188
sI2188
V\u9175
p2189
sI2189
V\u5bc5
p2190
sI2190
V\u5341
p2191
sI2191
V\u8fc7
p2192
sI2192
V\u505c
p2193
sI2193
V\u67d4
p2194
sI2194
V\u6d12
p2195
sI2195
V\u8d63
p2196
sI2196
V\u8352
p2197
sI2197
V\u53bf
p2198
sI2198
V\u77fd
p2199
sI2199
V\u68e4
p2200
sI2200
V\u88b1
p2201
sI2201
V\u82b1
p2202
sI2202
V\u5ba0
p2203
sI2203
V\u5e1d
p2204
sI2204
V\u9a8c
p2205
sI2205
V\u86ba
p2206
sI2206
V\u86b0
p2207
sI2207
V\u6b23
p2208
sI2208
V\u4e54
p2209
sI2209
V\u9510
p2210
sI2210
V\u5845
p2211
sI2211
V\u81e7
p2212
sI2212
V\u6f6e
p2213
sI2213
V\u8344
p2214
sI2214
V\u84e0
p2215
sI2215
V\u5d29
p2216
sI2216
V\u5417
p2217
sI2217
V\u70d4
p2218
sI2218
V\u7b0a
p2219
sI2219
V\u9143
p2220
sI2220
V\u556c
p2221
sI2221
V\u7f55
p2222
sI2222
V\u66dc
p2223
sI2223
V\u795d
p2224
sI2224
V\u732f
p2225
sI2225
V\u69cc
p2226
sI2226
V\u777f
p2227
sI2227
V\u52cd
p2228
sI2228
V\u7b24
p2229
sI2229
V\u6ee8
p2230
sI2230
V\u59a5
p2231
sI2231
V\u78fa
p2232
sI2232
V\u6670
p2233
sI2233
V\u4e3c
p2234
sI2234
V\u7ab3
p2235
sI2235
V\u5e76
p2236
sI2236
V\u7cdc
p2237
sI2237
V\u94f2
p2238
sI2238
V\u59e5
p2239
sI2239
V\u6448
p2240
sI2240
V\u9dfa
p2241
sI2241
V\u5e3d
p2242
sI2242
V\u6d29
p2243
sI2243
V\u535c
p2244
sI2244
V\u5d00
p2245
sI2245
V\u4fde
p2246
sI2246
V\u5014
p2247
sI2247
V\u5fe7
p2248
sI2248
V\u564e
p2249
sI2249
V\u73b2
p2250
sI2250
V\u84c4
p2251
sI2251
V\u989d
p2252
sI2252
V\u6da8
p2253
sI2253
V\u4ec9
p2254
sI2254
V\u80bf
p2255
sI2255
V\u8469
p2256
sI2256
V\u62d8
p2257
sI2257
V\u5a36
p2258
sI2258
V\u7935
p2259
sI2259
V\u85d0
p2260
sI2260
V\u9794
p2261
sI2261
V\u794a
p2262
sI2262
V\u5cac
p2263
sI2263
V\u8340
p2264
sI2264
V\u5d5d
p2265
sI2265
V\u563b
p2266
sI2266
V\u852b
p2267
sI2267
V\u603f
p2268
sI2268
V\u95f9
p2269
sI2269
V\u9528
p2270
sI2270
V\u52f0
p2271
sI2271
V\u7ba6
p2272
sI2272
V\u6930
p2273
sI2273
V\u5775
p2274
sI2274
V\u9edf
p2275
sI2275
V\u56f0
p2276
sI2276
V\u78b3
p2277
sI2277
V\u6a8e
p2278
sI2278
V\u94c5
p2279
sI2279
V\u7f8c
p2280
sI2280
V\u6874
p2281
sI2281
V\u57b5
p2282
sI2282
V\u620c
p2283
sI2283
V\u91c7
p2284
sI2284
V\u677b
p2285
sI2285
V\u9a87
p2286
sI2286
V\u5999
p2287
sI2287
V\u98df
p2288
sI2288
V\u70c3
p2289
sI2289
V\u65f8
p2290
sI2290
V\u4ede
p2291
sI2291
V\u5446
p2292
sI2292
V\u51bd
p2293
sI2293
V\u55bb
p2294
sI2294
V\u5a18
p2295
sI2295
V\u60cb
p2296
sI2296
V\u82ce
p2297
sI2297
V\u76d7
p2298
sI2298
V\u5454
p2299
sI2299
V\u83e9
p2300
sI2300
V\u8333
p2301
sI2301
V\u6d66
p2302
sI2302
V\u519a
p2303
sI2303
V\u6e3c
p2304
sI2304
V\u6da0
p2305
sI2305
V\u767f
p2306
sI2306
V\u7537
p2307
sI2307
V\u54ac
p2308
sI2308
V\u7850
p2309
sI2309
V\u5321
p2310
sI2310
V\u83a9
p2311
sI2311
V\u8201
p2312
sI2312
V\u51cc
p2313
sI2313
V\u53d9
p2314
sI2314
V\u66d9
p2315
sI2315
V\u7efd
p2316
sI2316
V\u6c50
p2317
sI2317
V\u5c1a
p2318
sI2318
V\u4ef2
p2319
sI2319
V\u9e93
p2320
sI2320
V\u9798
p2321
sI2321
V\u5e7c
p2322
sI2322
V\u5cb1
p2323
sI2323
V\u4fa9
p2324
sI2324
V\u5d2a
p2325
sI2325
V\u6805
p2326
sI2326
V\u8f0b
p2327
sI2327
V\u4e18
p2328
sI2328
V\u62ac
p2329
sI2329
V\u62c9
p2330
sI2330
V\u5de2
p2331
sI2331
V\u51b2
p2332
sI2332
V\u80e1
p2333
sI2333
V\u5561
p2334
sI2334
V\u6479
p2335
sI2335
V\u51b7
p2336
sI2336
V\u8463
p2337
sI2337
V\u4e50
p2338
sI2338
V\u88d2
p2339
sI2339
V\u4f53
p2340
sI2340
V\u9649
p2341
sI2341
V\u4e91
p2342
sI2342
V\u8d49
p2343
sI2343
V\u4ff8
p2344
sI2344
V\u7edf
p2345
sI2345
V\u9642
p2346
sI2346
V\u6869
p2347
sI2347
V\u9e3f
p2348
sI2348
V\u7f25
p2349
sI2349
V\u5821
p2350
sI2350
V\u731e
p2351
sI2351
V\u6293
p2352
sI2352
V\u68a7
p2353
sI2353
V\u6cee
p2354
sI2354
V\u53f9
p2355
sI2355
V\u8012
p2356
sI2356
V\u524a
p2357
sI2357
V\u540c
p2358
sI2358
V\u57a2
p2359
sI2359
V\u900f
p2360
sI2360
V\u8f93
p2361
sI2361
V\u8f95
p2362
sI2362
V\u80c4
p2363
sI2363
V\u5786
p2364
sI2364
V\u7389
p2365
sI2365
V\u7b8d
p2366
sI2366
V\u76b1
p2367
sI2367
V\u6b22
p2368
sI2368
V\u8855
p2369
sI2369
V\u96d5
p2370
sI2370
V\u8bb7
p2371
sI2371
V\u6d0b
p2372
sI2372
V\u50a8
p2373
sI2373
V\u813e
p2374
sI2374
V\u95fa
p2375
sI2375
V\u7eac
p2376
sI2376
V\u4e48
p2377
sI2377
V\u52fe
p2378
sI2378
V\u64ce
p2379
sI2379
V\u7c97
p2380
sI2380
V\u677e
p2381
sI2381
V\u782c
p2382
sI2382
V\u7bd9
p2383
sI2383
V\u5348
p2384
sI2384
V\u89c2
p2385
sI2385
V\u676d
p2386
sI2386
V\u6050
p2387
sI2387
V\u94a6
p2388
sI2388
V\u589e
p2389
sI2389
V\u5357
p2390
sI2390
V\u72cd
p2391
sI2391
V\u5f13
p2392
sI2392
V\u7cb9
p2393
sI2393
V\u6284
p2394
sI2394
V\u5c31
p2395
sI2395
V\u5cb8
p2396
sI2396
V\u7701
p2397
sI2397
V\u64e2
p2398
sI2398
V\u878d
p2399
sI2399
V\u7b26
p2400
sI2400
V\u97e7
p2401
sI2401
V\u87af
p2402
sI2402
V\u66f2
p2403
sI2403
V\u9606
p2404
sI2404
V\u7c95
p2405
sI2405
V\u7924
p2406
sI2406
V\u9645
p2407
sI2407
V\u8881
p2408
sI2408
V\u7532
p2409
sI2409
V\u8d30
p2410
sI2410
V\u5a46
p2411
sI2411
V\u9cdd
p2412
sI2412
V\u6cfd
p2413
sI2413
V\u643d
p2414
sI2414
V\u6c81
p2415
sI2415
V\u5487
p2416
sI2416
V\u70ad
p2417
sI2417
V\u6c11
p2418
sI2418
V\u707c
p2419
sI2419
V\u94e8
p2420
sI2420
V\u665e
p2421
sI2421
V\u9b3c
p2422
sI2422
V\u652f
p2423
sI2423
V\u9047
p2424
sI2424
V\u8568
p2425
sI2425
V\u5178
p2426
sI2426
V\u6c3d
p2427
sI2427
V\u547d
p2428
sI2428
V\u76d0
p2429
sI2429
V\u781a
p2430
sI2430
V\u5bcc
p2431
sI2431
V\u8fd8
p2432
sI2432
V\u6da2
p2433
sI2433
V\u684c
p2434
sI2434
V\u704f
p2435
sI2435
V\u67da
p2436
sI2436
V\u5b56
p2437
sI2437
V\u606d
p2438
sI2438
V\u70e7
p2439
sI2439
V\u971c
p2440
sI2440
V\u82cb
p2441
sI2441
V\u5ba6
p2442
sI2442
V\u6208
p2443
sI2443
V\u94c0
p2444
sI2444
V\u6bb3
p2445
sI2445
V\u57e4
p2446
sI2446
V\u9075
p2447
sI2447
V\u652b
p2448
sI2448
V\u4e5d
p2449
sI2449
V\u73f2
p2450
sI2450
V\u6dfc
p2451
sI2451
V\u7574
p2452
sI2452
V\u7fd4
p2453
sI2453
V\u7b62
p2454
sI2454
V\u5019
p2455
sI2455
V\u88f0
p2456
sI2456
V\u85af
p2457
sI2457
V\u8c2d
p2458
sI2458
V\u6295
p2459
sI2459
V\u4f97
p2460
sI2460
V\u5618
p2461
sI2461
V\u867e
p2462
sI2462
V\u9e9f
p2463
sI2463
V\u7a7a
p2464
sI2464
V\u82b8
p2465
sI2465
V\u7835
p2466
sI2466
V\u955c
p2467
sI2467
V\u72ec
p2468
sI2468
V\u5496
p2469
sI2469
V\u955d
p2470
sI2470
V\u5a07
p2471
sI2471
V\u949d
p2472
sI2472
V\u9ca4
p2473
sI2473
V\u5764
p2474
sI2474
V\u8d3a
p2475
sI2475
V\u6769
p2476
sI2476
V\u90e7
p2477
sI2477
V\u5b5a
p2478
sI2478
V\u5544
p2479
sI2479
V\u9a78
p2480
sI2480
V\u797a
p2481
sI2481
V\u60d5
p2482
sI2482
V\u4f57
p2483
sI2483
V\u5ec9
p2484
sI2484
V\u533e
p2485
sI2485
V\u817b
p2486
sI2486
V\u7888
p2487
sI2487
V\u5f99
p2488
sI2488
V\u6602
p2489
sI2489
V\u7266
p2490
sI2490
V\u9451
p2491
sI2491
V\u7893
p2492
sI2492
V\u537e
p2493
sI2493
V\u9041
p2494
sI2494
V\u6e9f
p2495
sI2495
V\u6631
p2496
sI2496
V\u6c5f
p2497
sI2497
V\u5d6f
p2498
sI2498
V\u8ff8
p2499
sI2499
V\u8896
p2500
sI2500
V\u508d
p2501
sI2501
V\u67dc
p2502
sI2502
V\u819c
p2503
sI2503
V\u6151
p2504
sI2504
V\u90af
p2505
sI2505
V\u573a
p2506
sI2506
V\u8e2a
p2507
sI2507
V\u9aa1
p2508
sI2508
V\u91cc
p2509
sI2509
V\u961c
p2510
sI2510
V\u4eb3
p2511
sI2511
V\u637a
p2512
sI2512
V\u9cd4
p2513
sI2513
V\u51fd
p2514
sI2514
V\u7b40
p2515
sI2515
V\u6f08
p2516
sI2516
V\u4ed1
p2517
sI2517
V\u5d02
p2518
sI2518
V\u8354
p2519
sI2519
V\u9761
p2520
sI2520
V\u92c6
p2521
sI2521
V\u8dcc
p2522
sI2522
V\u6d01
p2523
sI2523
V\u6dcb
p2524
sI2524
V\u66f0
p2525
sI2525
V\u5ef6
p2526
sI2526
V\u5dfe
p2527
sI2527
V\u52a0
p2528
sI2528
V\u7126
p2529
sI2529
V\u86c9
p2530
sI2530
V\u54df
p2531
sI2531
V\u63c6
p2532
sI2532
V\u543b
p2533
sI2533
V\u8eba
p2534
sI2534
V\u604b
p2535
sI2535
V\u8c1a
p2536
sI2536
V\u5531
p2537
sI2537
V\u8df8
p2538
sI2538
V\u739b
p2539
sI2539
V\u85e0
p2540
sI2540
V\u55df
p2541
sI2541
V\u7cca
p2542
sI2542
V\u4f6c
p2543
sI2543
V\u5085
p2544
sI2544
V\u753a
p2545
sI2545
V\u607f
p2546
sI2546
V\u94dd
p2547
sI2547
V\u7545
p2548
sI2548
V\u6c85
p2549
sI2549
V\u8fa8
p2550
sI2550
V\u6c8c
p2551
sI2551
V\u6ea5
p2552
sI2552
V\u56f1
p2553
sI2553
V\u7898
p2554
sI2554
V\u7ff0
p2555
sI2555
V\u90ba
p2556
sI2556
V\u5468
p2557
sI2557
V\u7634
p2558
sI2558
V\u8499
p2559
sI2559
V\u6574
p2560
sI2560
V\u83c1
p2561
sI2561
V\u90eb
p2562
sI2562
V\u8026
p2563
sI2563
V\u9485
p2564
sI2564
V\u7840
p2565
sI2565
V\u9551
p2566
sI2566
V\u738e
p2567
sI2567
V\u5f9c
p2568
sI2568
V\u6e5c
p2569
sI2569
V\u8c3c
p2570
sI2570
V\u719f
p2571
sI2571
V\u583c
p2572
sI2572
V\u5a6a
p2573
sI2573
V\u4f17
p2574
sI2574
V\u80ba
p2575
sI2575
V\u5dc9
p2576
sI2576
V\u65f5
p2577
sI2577
V\u6cbe
p2578
sI2578
V\u677f
p2579
sI2579
V\u6064
p2580
sI2580
V\u7b51
p2581
sI2581
V\u6021
p2582
sI2582
V\u9992
p2583
sI2583
V\u5411
p2584
sI2584
V\u561b
p2586
sI2586
V\u7830
p2587
sI2587
V\u5076
p2588
sI2588
V\u88bc
p2589
sI2589
V\u578c
p2590
sI2590
V\u7405
p2591
sI2591
V\u77e9
p2592
sI2592
V\u5768
p2593
sI2593
V\u5f80
p2594
sI2594
V\u5591
p2595
sI2595
V\u9e2d
p2596
sI2596
V\u83d3
p2597
sI2597
V\u70dc
p2598
sI2598
V\u5ce5
p2599
sI2599
V\u6cfe
p2600
sI2600
V\u9050
p2601
sI2601
V\u68b3
p2602
sI2602
V\u7b7b
p2603
sI2603
V\u5e37
p2604
sI2604
V\u63c9
p2605
sI2605
V\u7985
p2606
sI2606
V\u736d
p2607
sI2607
V\u6c6d
p2608
sI2608
V\u6a1f
p2609
sI2609
V\u7800
p2610
sI2610
V\u8861
p2611
sI2611
V\u890a
p2612
sI2612
V\u805a
p2613
sI2613
V\u532a
p2614
sI2614
V\u6563
p2615
sI2615
V\u966a
p2616
sI2616
V\u7bad
p2617
sI2617
V\u670d
p2618
sI2618
V\u6807
p2619
sI2619
V\u79ef
p2620
sI2620
V\u5e7a
p2621
sI2621
V\u61a7
p2622
sI2622
V\u5a04
p2623
sI2623
V\u5a1c
p2624
sI2624
V\u8be1
p2625
sI2625
V\u82fe
p2626
sI2626
V\u6f6d
p2627
sI2627
V\u5955
p2628
sI2628
V\u5e95
p2629
sI2629
V\u6591
p2630
sI2630
V\u6de1
p2631
sI2631
V\u7f1a
p2632
sI2632
V\u9539
p2633
sI2633
V\u69f2
p2634
sI2634
V\u6a17
p2635
sI2635
V\u5546
p2636
sI2636
V\u6c2f
p2637
sI2637
V\u78b4
p2638
sI2638
V\u88c1
p2639
sI2639
V\u86c7
p2640
sI2640
V\u915d
p2641
sI2641
V\u9e7f
p2642
sI2642
V\u9ad9
p2643
sI2643
V\u6dd6
p2644
sI2644
V\u4e5c
p2645
sI2645
V\u8d2c
p2646
sI2646
V\u5986
p2647
sI2647
V\u59a8
p2648
sI2648
V\u6597
p2649
sI2649
V\u6dec
p2650
sI2650
V\u6d70
p2651
sI2651
V\u5173
p2652
sI2652
V\u752d
p2653
sI2653
V\u5473
p2654
sI2654
V\u79a4
p2655
sI2655
V\u6e5f
p2656
sI2656
V\u8e39
p2657
sI2657
V\u7c30
p2658
sI2658
V\u849c
p2659
sI2659
V\u91ca
p2660
sI2660
V\u5555
p2661
sI2661
V\u6cf3
p2662
sI2662
V\u6c89
p2663
sI2663
V\u8451
p2664
sI2664
V\u6554
p2665
sI2665
V\u5693
p2666
sI2666
V\u69b7
p2667
sI2667
V\u77a7
p2668
sI2668
V\u7ee9
p2669
sI2669
V\u524d
p2670
sI2670
V\u77aa
p2671
sI2671
V\u5ef7
p2672
sI2672
V\u62e7
p2673
sI2673
V\u633a
p2674
sI2674
V\u6a11
p2675
sI2675
V\u5f84
p2676
sI2676
V\u8d81
p2677
sI2677
V\u78b6
p2678
sI2678
V\u89c3
p2679
sI2679
V\u9570
p2680
sI2680
V\u56e2
p2681
sI2681
V\u6fee
p2682
sI2682
V\u5ff5
p2683
sI2683
V\u6740
p2684
sI2684
V\u50ac
p2685
sI2685
V\u6e24
p2686
sI2686
V\u661d
p2687
sI2687
V\u768b
p2688
sI2688
V\u78dc
p2689
sI2689
V\u83f4
p2690
sI2690
V\u6d5c
p2691
sI2691
V\u5543
p2692
sI2692
V\u6846
p2693
sI2693
V\u8c4c
p2694
sI2694
V\u83c5
p2695
sI2695
V\u591f
p2696
sI2696
V\u78b1
p2697
sI2697
V\u6c22
p2698
sI2698
V\u7538
p2699
sI2699
V\u4e4b
p2700
sI2700
V\u5c96
p2701
sI2701
V\u73b3
p2702
sI2702
V\u6634
p2703
sI2703
V\u914b
p2704
sI2704
V\u84b2
p2705
sI2705
V\u8be9
p2706
sI2706
V\u6cc7
p2707
sI2707
V\u5d04
p2708
sI2708
V\u9057
p2709
sI2709
V\u82eb
p2710
sI2710
V\u7a00
p2711
sI2711
V\u7fdf
p2712
sI2712
V\u78db
p2713
sI2713
V\u6643
p2714
sI2714
V\u79d1
p2715
sI2715
V\u6808
p2716
sI2716
V\u7f3a
p2717
sI2717
V\u7579
p2718
sI2718
V\u796d
p2719
sI2719
V\u5f0b
p2720
sI2720
V\u9001
p2721
sI2721
V\u521b
p2722
sI2722
V\u63ba
p2723
sI2723
V\u6d78
p2724
sI2724
V\u8fed
p2725
sI2725
V\u9713
p2726
sI2726
V\u9cc3
p2727
sI2727
V\u6e85
p2728
sI2728
V\u7cd6
p2729
sI2729
V\u7525
p2730
sI2730
V\u5364
p2731
sI2731
V\u557c
p2732
sI2732
V\u8c8c
p2733
sI2733
V\u62f7
p2734
sI2734
V\u9a8d
p2735
sI2735
V\u6216
p2736
sI2736
V\u7f7e
p2737
sI2737
V\u9882
p2738
sI2738
V\u5e26
p2739
sI2739
V\u9b44
p2740
sI2740
V\u6da9
p2741
sI2741
V\u9a70
p2742
sI2742
V\u8d67
p2743
sI2743
V\u95f5
p2744
sI2744
V\u7f8a
p2745
sI2745
V\u762b
p2746
sI2746
V\u96ef
p2747
sI2747
V\u7cd5
p2748
sI2748
V\u6084
p2749
sI2749
V\u90e6
p2750
sI2750
V\u7f16
p2751
sI2751
V\u5d3d
p2752
sI2752
V\u5f1f
p2753
sI2753
V\u4f60
p2754
sI2754
V\u621a
p2755
sI2755
V\u84bf
p2756
sI2756
V\u5ba3
p2757
sI2757
V\u6848
p2758
sI2758
V\u5250
p2759
sI2759
V\u695d
p2760
sI2760
V\u87f3
p2761
sI2761
V\u58eb
p2762
sI2762
V\u7080
p2763
sI2763
V\u9685
p2764
sI2764
V\u82f9
p2765
sI2765
V\u7548
p2766
sI2766
V\u4e88
p2767
sI2767
V\u641d
p2768
sI2768
V\u51a4
p2769
sI2769
V\u8146
p2770
sI2770
V\u5a11
p2771
sI2771
V\u4ec2
p2772
sI2772
V\u95f7
p2773
sI2773
V\u6562
p2774
sI2774
V\u75c5
p2775
sI2775
V\u5e91
p2776
sI2776
V\u8365
p2777
sI2777
V\u8f6f
p2778
sI2778
V\u6897
p2779
sI2779
V\u5464
p2780
sI2780
V\u8f6e
p2781
sI2781
V\u5a7f
p2782
sI2782
V\u83b9
p2783
sI2783
V\u8c62
p2784
sI2784
V\u5b87
p2785
sI2785
V\u5e0c
p2787
sI2787
V\u9e6b
p2788
sI2788
V\u53f8
p2789
sI2789
V\u7ea5
p2790
sI2790
V\u80fd
p2791
sI2791
V\u97e6
p2792
sI2792
V\u748b
p2793
sI2793
V\u6753
p2794
sI2794
V\u66b9
p2795
sI2795
V\u606f
p2796
sI2796
V\u6f9c
p2797
sI2797
V\u699c
p2798
sI2798
V\u90bb
p2799
sI2799
V\u67ad
p2800
sI2800
V\u6756
p2801
sI2801
V\u70fd
p2802
sI2802
V\u57af
p2803
sI2803
V\u8a79
p2804
sI2804
V\u914c
p2805
sI2805
V\u6c3f
p2806
sI2806
V\u8dc3
p2807
sI2807
V\u866b
p2808
sI2808
V\u6d9e
p2809
sI2809
V\u69a8
p2810
sI2810
V\u57a6
p2811
sI2811
V\u4f26
p2812
sI2812
V\u793a
p2813
sI2813
V\u8882
p2814
sI2814
V\u6774
p2815
sI2815
V\u6db3
p2816
sI2816
V\u9523
p2817
sI2817
V\u88d9
p2818
sI2818
V\u6d31
p2819
sI2819
V\u5f0a
p2820
sI2820
V\u7b2c
p2821
sI2821
V\u7131
p2822
sI2822
V\u94f6
p2823
sI2823
V\u79d5
p2824
sI2824
V\u4eca
p2825
sI2825
V\u5e2e
p2826
sI2826
V\u6e29
p2827
sI2827
V\u7823
p2828
sI2828
V\u6367
p2829
sI2829
V\u62a5
p2830
sI2830
V\u6c9b
p2831
sI2831
V\u884d
p2832
sI2832
V\u8e22
p2833
sI2833
V\u606b
p2834
sI2834
V\u514d
p2835
sI2835
V\u6bd6
p2836
sI2836
V\u6767
p2837
sI2837
V\u8db8
p2838
sI2838
V\u97eb
p2839
sI2839
V\u4e58
p2840
sI2840
V\u9ab8
p2841
sI2841
V\u7387
p2842
sI2842
V\u7b2e
p2843
sI2843
V\u86b1
p2844
sI2844
V\u6d6e
p2845
sI2845
V\u83fd
p2846
sI2846
V\u54c6
p2847
sI2847
V\u4f3c
p2848
sI2848
V\u8150
p2849
sI2849
V\u9aa6
p2850
sI2850
V\u541d
p2851
sI2851
V\u5992
p2852
sI2852
V\u83e0
p2853
sI2853
V\u843d
p2854
sI2854
V\u94c6
p2855
sI2855
V\u7895
p2856
sI2856
V\u6218
p2857
sI2857
V\u72b6
p2858
sI2858
V\u948e
p2859
sI2859
V\u63f4
p2860
sI2860
V\u786b
p2861
sI2861
V\u8eac
p2862
sI2862
V\u6beb
p2863
sI2863
V\u7317
p2864
sI2864
V\u4ebf
p2865
sI2865
V\u8f7d
p2866
sI2866
V\u52c9
p2867
sI2867
V\u5c6f
p2868
sI2868
V\u6746
p2869
sI2869
V\u8de8
p2870
sI2870
V\u62e5
p2871
sI2871
V\u5363
p2872
sI2872
V\u4e26
p2873
sI2873
V\u6986
p2874
sI2874
V\u5c9b
p2875
sI2875
V\u7b1b
p2876
sI2876
V\u8f7c
p2877
sI2877
V\u51a0
p2878
sI2878
V\u634c
p2879
sI2879
V\u7841
p2880
sI2880
V\u711c
p2881
sI2881
V\u6b62
p2882
sI2882
V\u4e13
p2883
sI2883
V\u8db3
p2884
sI2884
V\u8424
p2885
sI2885
V\u598a
p2886
sI2886
V\u751a
p2887
sI2887
V\u6538
p2888
sI2888
V\u6c79
p2889
sI2889
V\u8304
p2890
sI2890
V\u6fa1
p2891
sI2891
V\u8347
p2892
sI2892
V\u8df5
p2893
sI2893
V\u8e4a
p2894
sI2894
V\u5c8e
p2895
sI2895
V\u65e2
p2896
sI2896
V\u773a
p2897
sI2897
V\u57d2
p2898
sI2898
V\u6790
p2899
sI2899
V\u819b
p2900
sI2900
V\u73fa
p2901
sI2901
V\u6413
p2902
sI2902
V\u6c14
p2903
sI2903
V\u51f6
p2904
sI2904
V\u6cd6
p2905
sI2905
V\u5410
p2906
sI2906
V\u579b
p2907
sI2907
V\u780c
p2908
sI2908
V\u906e
p2909
sI2909
V\u7085
p2910
sI2910
V\u8ba9
p2911
sI2911
V\u6212
p2912
sI2912
V\u5632
p2913
sI2913
V\u5e84
p2914
sI2914
V\u5ce1
p2915
sI2915
V\u6a61
p2916
sI2916
V\u54c9
p2917
sI2917
V\u7259
p2918
sI2918
V\u978d
p2919
sI2919
V\u5a5a
p2920
sI2920
V\u53a2
p2921
sI2921
V\u8f66
p2922
sI2922
V\u97e9
p2923
sI2923
V\u5815
p2924
sI2924
V\u6f0b
p2925
sI2925
V\u6641
p2926
sI2926
V\u579e
p2927
sI2927
V\u5343
p2928
sI2928
V\u6cb9
p2929
sI2929
V\u6e0c
p2930
sI2930
V\u622c
p2931
sI2931
V\u68f5
p2932
sI2932
V\u7691
p2933
sI2933
V\u5f08
p2934
sI2934
V\u8ddb
p2935
sI2935
V\u521a
p2936
sI2936
V\u9cb5
p2937
sI2937
V\u5cf0
p2938
sI2938
V\u6cf8
p2939
sI2939
V\u6978
p2940
sI2940
V\u6f13
p2941
sI2941
V\u6253
p2942
sI2942
V\u9661
p2943
sI2943
V\u802a
p2944
sI2944
V\u9970
p2945
sI2945
V\u6b49
p2946
sI2946
V\u5492
p2947
sI2947
V\u8005
p2948
sI2948
V\u51c7
p2949
sI2949
V\u7687
p2950
sI2950
V\u8482
p2951
sI2951
V\u94ce
p2952
sI2952
V\u747e
p2953
sI2953
V\u9c8a
p2954
sI2954
V\u94ee
p2955
sI2955
V\u576d
p2956
sI2956
V\u68e1
p2957
sI2957
V\u8eb2
p2958
sI2958
V\u60ef
p2959
sI2959
V\u54d9
p2960
sI2960
V\u54c0
p2961
sI2961
V\u9774
p2962
sI2962
V\u7709
p2963
sI2963
V\u4f0a
p2964
sI2964
V\u4e09
p2965
sI2965
V\u70c8
p2966
sI2966
V\u95a4
p2967
sI2967
V\u5cb5
p2968
sI2968
V\u751f
p2969
sI2969
V\u6559
p2970
sI2970
V\u5c19
p2971
sI2971
V\u6bd5
p2972
sI2972
V\u6297
p2973
sI2973
V\u7bf7
p2974
sI2974
V\u963b
p2975
sI2975
V\u5c9a
p2976
sI2976
V\u58c7
p2977
sI2977
V\u8681
p2978
sI2978
V\u542f
p2979
sI2979
V\u7852
p2980
sI2980
V\u8910
p2981
sI2981
V\u8d2e
p2982
sI2982
V\u5cbd
p2983
sI2983
V\u6ecf
p2984
sI2984
V\u90c7
p2985
sI2985
V\u5f29
p2986
sI2986
V\u7626
p2987
sI2987
V\u520e
p2988
sI2988
V\u94be
p2989
sI2989
V\u69ed
p2990
sI2990
V\u6dc5
p2991
sI2991
V\u9aa8
p2992
sI2992
V\u58ec
p2993
sI2993
V\u94a3
p2994
sI2994
V\u9889
p2995
sI2995
V\u5415
p2996
sI2996
V\u5b8c
p2997
sI2997
V\u8377
p2998
sI2998
V\u5d4a
p2999
sI2999
V\u7a88
p3000
sI3000
V\u61c8
p3001
sI3001
V\u75bc
p3002
sI3002
V\u76bf
p3003
sI3003
V\u8782
p3004
sI3004
V\u654f
p3005
sI3005
V\u8865
p3006
sI3006
V\u85e4
p3007
sI3007
V\u52b1
p3008
sI3008
V\u516d
p3009
sI3009
V\u53e0
p3010
sI3010
V\u7b49
p3011
sI3011
V\u6963
p3012
sI3012
V\u6020
p3013
sI3013
V\u57f9
p3014
sI3014
V\u62a4
p3015
sI3015
V\u9c8d
p3016
sI3016
V\u9192
p3017
sI3017
V\u5b55
p3018
sI3018
V\u5c14
p3019
sI3019
V\u5c40
p3020
sI3020
V\u7b79
p3021
sI3021
V\u752c
p3022
sI3022
V\u9b42
p3023
sI3023
V\u4f7c
p3024
sI3024
V\u888d
p3025
sI3025
V\u94a2
p3026
sI3026
V\u54ea
p3027
sI3027
V\u93ca
p3028
sI3028
V\u989c
p3029
sI3029
V\u6742
p3030
sI3030
V\u87c6
p3031
sI3031
V\u8fc8
p3032
sI3032
V\u8473
p3033
sI3033
V\u82f4
p3034
sI3034
V\u642c
p3035
sI3035
V\u4ea2
p3036
sI3036
V\u828f
p3037
sI3037
V\u8d5f
p3038
sI3038
V\u8d32
p3039
sI3039
V\u7410
p3040
sI3040
V\u6ee7
p3041
sI3041
V\u6e56
p3042
sI3042
V\u734f
p3043
sI3043
V\u8be2
p3044
sI3044
V\u6da6
p3045
sI3045
V\u84e2
p3046
sI3046
V\u8654
p3047
sI3047
V\u749f
p3048
sI3048
V\u9501
p3049
sI3049
V\u54bd
p3050
sI3050
V\u8c34
p3051
sI3051
V\u593c
p3052
sI3052
V\u5bb8
p3053
sI3053
V\u8bed
p3054
sI3054
V\u60ac
p3055
sI3055
V\u819d
p3056
sI3056
V\u9508
p3057
sI3057
V\u854a
p3058
sI3058
V\u6f7c
p3059
sI3059
V\u71ce
p3060
sI3060
V\u5df4
p3061
sI3061
V\u7860
p3062
sI3062
V\u7ef6
p3063
sI3063
V\u7eb1
p3064
sI3064
V\u9971
p3065
sI3065
V\u5947
p3066
sI3066
V\u5477
p3067
sI3067
V\u73af
p3068
sI3068
V\u8339
p3069
sI3069
V\u6db4
p3070
sI3070
V\u5c05
p3071
sI3071
V\u870a
p3072
sI3072
V\u5490
p3073
sI3073
V\u5e7d
p3074
sI3074
V\u69ff
p3075
sI3075
V\u7597
p3076
sI3076
V\u9a73
p3077
sI3077
V\u5047
p3078
sI3078
V\u851a
p3079
sI3079
V\u7457
p3080
sI3080
V\u622a
p3081
sI3081
V\u8214
p3082
sI3082
V\u6f0f
p3083
sI3083
V\u84af
p3084
sI3084
V\u56da
p3085
sI3085
V\u63d6
p3086
sI3086
V\u641c
p3087
sI3087
V\u7eda
p3088
sI3088
V\u70f9
p3089
sI3089
V\u9600
p3090
sI3090
V\u5212
p3091
sI3091
V\u57b8
p3092
sI3092
V\u655d
p3093
sI3093
V\u68e0
p3094
sI3094
V\u4ece
p3095
sI3095
V\u5ffb
p3096
sI3096
V\u96d2
p3097
sI3097
V\u4ff1
p3098
sI3098
V\u7513
p3099
sI3099
V\u4ef0
p3100
sI3100
V\u7b72
p3101
sI3101
V\u7ba9
p3102
sI3102
V\u54cd
p3103
sI3103
V\u5ac9
p3104
sI3104
V\u8bec
p3105
sI3105
V\u8c08
p3106
sI3106
V\u6402
p3107
sI3107
V\u7ec3
p3108
sI3108
V\u73a0
p3109
sI3109
V\u8036
p3110
sI3110
V\u6cd5
p3111
sI3111
V\u6d69
p3112
sI3112
V\u9524
p3113
sI3113
V\u59aa
p3114
sI3114
V\u6a80
p3115
sI3115
V\u5372
p3116
sI3116
V\u6db5
p3117
sI3117
V\u68cb
p3118
sI3118
V\u65ee
p3119
sI3119
V\u9051
p3120
sI3120
V\u5ddd
p3121
sI3121
V\u6069
p3122
sI3122
V\u62d2
p3123
sI3123
V\u9042
p3124
sI3124
V\u7a37
p3125
sI3125
V\u7ba2
p3126
sI3126
V\u77a9
p3127
sI3127
V\u6d9d
p3128
sI3128
V\u949e
p3129
sI3129
V\u52d0
p3130
sI3130
V\u6101
p3131
sI3131
V\u6cfc
p3132
sI3132
V\u7bee
p3133
sI3133
V\u6f8e
p3134
sI3134
V\u7521
p3135
sI3135
V\u58f0
p3136
sI3136
V\u8d5c
p3137
sI3137
V\u6ce1
p3138
sI3138
V\u4efd
p3139
sI3139
V\u5787
p3140
sI3140
V\u9636
p3141
sI3141
V\u8c12
p3142
sI3142
V\u7ec7
p3143
sI3143
V\u8885
p3144
sI3144
V\u81c2
p3145
sI3145
V\u622e
p3146
sI3146
V\u73e9
p3147
sI3147
V\u7ef0
p3148
sI3148
V\u822a
p3149
sI3149
V\u8535
p3150
sI3150
V\u573e
p3151
sI3151
V\u56fa
p3152
sI3152
V\u9910
p3153
sI3153
V\u90c1
p3154
sI3154
V\u7ccd
p3155
sI3155
V\u8bad
p3156
sI3156
V\u8d3e
p3157
sI3157
V\u8d5e
p3158
sI3158
V\u75af
p3159
sI3159
V\u4f50
p3160
sI3160
V\u8c3f
p3161
sI3161
V\u63b8
p3162
sI3162
V\u836a
p3163
sI3163
V\u593a
p3164
sI3164
V\u5b89
p3165
sI3165
V\u7e41
p3166
sI3166
V\u9cb6
p3167
sI3167
V\u82d5
p3168
sI3168
V\u5d26
p3169
sI3169
V\u834d
p3170
sI3170
V\u4eff
p3171
sI3171
V\u988d
p3172
sI3172
V\u503e
p3173
sI3173
V\u5810
p3174
sI3174
V\u6cd0
p3175
sI3175
V\u5439
p3176
sI3176
V\u8549
p3177
sI3177
V\u521d
p3178
sI3178
V\u8084
p3179
sI3179
V\u5984
p3180
sI3180
V\u683e
p3181
sI3181
V\u7816
p3182
sI3182
V\u5317
p3183
sI3183
V\u6620
p3184
sI3184
V\u7f34
p3185
sI3185
V\u7883
p3186
sI3186
V\u6f37
p3187
sI3187
V\u6c82
p3188
sI3188
V\u5fcc
p3189
sI3189
V\u8089
p3190
sI3190
V\u709c
p3191
sI3191
V\u53f0
p3192
sI3192
V\u6832
p3193
sI3193
V\u6e10
p3194
sI3194
V\u7f24
p3195
sI3195
V\u5c81
p3196
sI3196
V\u4ed9
p3197
sI3197
V\u77f3
p3198
sI3198
V\u756c
p3199
sI3199
V\u5ba4
p3200
sI3200
V\u6469
p3201
sI3201
V\u6f5e
p3202
sI3202
V\u9877
p3203
sI3203
V\u8c1f
p3204
sI3204
V\u5e8f
p3205
sI3205
V\u5c7a
p3206
sI3206
V\u698d
p3207
sI3207
V\u8016
p3208
sI3208
V\u505a
p3209
sI3209
V\u57ad
p3210
sI3210
V\u7b4b
p3211
sI3211
V\u8010
p3212
sI3212
V\u754f
p3213
sI3213
V\u9968
p3214
sI3214
V\u96c1
p3215
sI3215
V\u7f9e
p3216
sI3216
V\u85dc
p3217
sI3217
V\u86f0
p3218
sI3218
V\u6d07
p3219
sI3219
V\u6ddc
p3220
sI3220
V\u60eb
p3221
sI3221
V\u9d96
p3222
sI3222
V\u5f85
p3223
sI3223
V\u67de
p3224
sI3224
V\u517b
p3225
sI3225
V\u8bc8
p3226
sI3226
V\u6fb9
p3227
sI3227
V\u53f1
p3228
sI3228
V\u56e4
p3229
sI3229
V\u6845
p3231
sI3231
V\u8572
p3232
sI3232
V\u6d94
p3233
sI3233
V\u7686
p3234
sI3234
V\u904d
p3235
sI3235
V\u9187
p3236
sI3236
V\u68ec
p3237
sI3237
V\u5256
p3238
sI3238
V\u62f3
p3239
sI3239
V\u832d
p3240
sI3240
V\u80c6
p3241
sI3241
V\u5ca3
p3242
sI3242
V\u7130
p3243
sI3243
V\u6307
p3244
sI3244
V\u827d
p3245
sI3245
V\u86b6
p3246
sI3246
V\u8bf5
p3247
sI3247
V\u8c82
p3248
sI3248
V\u575e
p3249
sI3249
V\u9535
p3250
sI3250
V\u500d
p3251
sI3251
V\u5929
p3252
sI3252
V\u94b5
p3253
sI3253
V\u5d2d
p3254
sI3254
V\u7092
p3255
sI3255
V\u6682
p3256
sI3256
V\u7566
p3257
sI3257
V\u8334
p3258
sI3258
V\u8e05
p3259
sI3259
V\u588e
p3260
sI3260
V\u85b0
p3261
sI3261
V\u96b0
p3262
sI3262
V\u8759
p3263
sI3263
V\u67e0
p3264
sI3264
V\u8712
p3265
sI3265
V\u573b
p3266
sI3266
V\u599e
p3267
sI3267
V\u5bb5
p3268
sI3268
V\u7ade
p3269
sI3269
V\u6211
p3270
sI3270
V\u4e8e
p3271
sI3271
V\u4e2b
p3272
sI3272
V\u7ef7
p3273
sI3273
V\u90ed
p3274
sI3274
V\u94a8
p3275
sI3275
V\u6d2e
p3276
sI3276
V\u7239
p3277
sI3277
V\u85ff
p3278
sI3278
V\u94c2
p3279
sI3279
V\u7ec8
p3280
sI3280
V\u6a66
p3281
sI3281
V\u978b
p3282
sI3282
V\u8206
p3283
sI3283
V\u6e44
p3284
sI3284
V\u74a7
p3285
sI3285
V\u5700
p3286
sI3286
V\u653e
p3287
sI3287
V\u8006
p3288
sI3288
V\u8f85
p3289
sI3289
V\u8bcc
p3290
sI3290
V\u5d03
p3291
sI3291
V\u90da
p3292
sI3292
V\u679a
p3293
sI3293
V\u6d9f
p3294
sI3294
V\u6717
p3295
sI3295
V\u5e03
p3296
sI3296
V\u632b
p3297
sI3297
V\u8367
p3298
sI3298
V\u8fd0
p3299
sI3299
V\u68ad
p3300
sI3300
V\u80a1
p3301
sI3301
V\u53d1
p3302
sI3302
V\u82d6
p3303
sI3303
V\u7a83
p3304
sI3304
V\u5899
p3305
sI3305
V\u7b76
p3306
sI3306
V\u5578
p3307
sI3307
V\u56df
p3308
sI3308
V\u9709
p3309
sI3309
V\u95f0
p3310
sI3310
V\u97ec
p3311
sI3311
V\u552e
p3312
sI3312
V\u884c
p3313
sI3313
V\u7ea7
p3314
sI3314
V\u86f9
p3315
sI3315
V\u4fea
p3316
sI3316
V\u8e48
p3317
sI3317
V\u7f58
p3318
sI3318
V\u6861
p3319
sI3319
V\u6dd9
p3320
sI3320
V\u963f
p3321
sI3321
V\u52cb
p3322
sI3322
V\u81fb
p3323
sI3323
V\u9cb2
p3324
sI3324
V\u6a7c
p3325
sI3325
V\u7ee0
p3326
sI3326
V\u6d16
p3327
sI3327
V\u8559
p3328
sI3328
V\u8c0e
p3329
sI3329
V\u53e8
p3330
sI3330
V\u8403
p3331
sI3331
V\u62d9
p3332
sI3332
V\u72d0
p3333
sI3333
V\u6855
p3334
sI3334
V\u71d5
p3335
sI3335
V\u65b0
p3336
sI3336
V\u75a5
p3337
sI3337
V\u7edb
p3338
sI3338
V\u5b34
p3339
sI3339
V\u6c16
p3340
sI3340
V\u87f9
p3341
sI3341
V\u658c
p3342
sI3342
V\u9ec9
p3343
sI3343
V\u94b0
p3344
sI3344
V\u7a1a
p3345
sI3345
V\u663c
p3346
sI3346
V\u8da3
p3347
sI3347
V\u8fbd
p3348
sI3348
V\u5c15
p3349
sI3349
V\u7837
p3350
sI3350
V\u5937
p3351
sI3351
V\u5f7b
p3352
sI3352
V\u4e27
p3353
sI3353
V\u8c41
p3354
sI3354
V\u9000
p3355
sI3355
V\u82e4
p3356
sI3356
V\u8dbe
p3357
sI3357
V\u90de
p3358
sI3358
V\u7ef5
p3359
sI3359
V\u788e
p3360
sI3360
V\u574e
p3361
sI3361
V\u6f84
p3362
sI3362
V\u5d5b
p3363
sI3363
V\u8d29
p3364
sI3364
V\u9b54
p3365
sI3365
V\u4fd8
p3366
sI3366
V\u6f02
p3367
sI3367
V\u620d
p3368
sI3368
V\u7e82
p3369
sI3369
V\u7f5a
p3370
sI3370
V\u7c7b
p3371
sI3371
V\u6bb5
p3372
sI3372
V\u6246
p3373
sI3373
V\u5200
p3374
sI3374
V\u504f
p3375
sI3375
V\u6862
p3376
sI3376
V\u9534
p3377
sI3377
V\u8bf4
p3378
sI3378
V\u8457
p3379
sI3379
V\u902f
p3380
sI3380
V\u5eb6
p3381
sI3381
V\u54c4
p3382
sI3382
V\u6cae
p3383
sI3383
V\u94ad
p3384
sI3384
V\u741b
p3385
sI3385
V\u5c8c
p3386
sI3386
V\u7b96
p3387
sI3387
V\u4e8c
p3388
sI3388
V\u8fb1
p3389
sI3389
V\u533f
p3390
sI3390
V\u86f3
p3391
sI3391
V\u8c03
p3392
sI3392
V\u542c
p3393
sI3393
V\u9cd6
p3394
sI3394
V\u9654
p3395
sI3395
V\u6590
p3396
sI3396
V\u8148
p3397
sI3397
V\u6014
p3398
sI3398
V\u7ece
p3399
sI3399
V\u5448
p3400
sI3400
V\u7b5d
p3401
sI3401
V\u6954
p3402
sI3402
V\u5237
p3403
sI3403
V\u5450
p3404
sI3404
V\u79bb
p3405
sI3405
V\u4e15
p3406
sI3406
V\u608d
p3407
sI3407
V\u8bbd
p3408
sI3408
V\u8d43
p3409
sI3409
V\u6512
p3410
sI3410
V\u7f20
p3411
sI3411
V\u5cc1
p3412
sI3412
V\u8c55
p3413
sI3413
V\u5c49
p3414
sI3414
V\u77db
p3415
sI3415
V\u7a98
p3416
sI3416
V\u8f6c
p3417
sI3417
V\u956d
p3418
sI3418
V\u7ef4
p3419
sI3419
V\u94b3
p3420
sI3420
V\u4eb2
p3421
sI3421
V\u8282
p3422
sI3422
V\u8301
p3423
sI3423
V\u5eea
p3424
sI3424
V\u8d8a
p3425
sI3425
V\u94f8
p3426
sI3426
V\u7a91
p3427
sI3427
V\u8429
p3428
sI3428
V\u5eb8
p3429
sI3429
V\u96f2
p3430
sI3430
V\u8d54
p3431
sI3431
V\u5c97
p3432
sI3432
V\u9517
p3433
sI3433
V\u50fb
p3434
sI3434
V\u53a5
p3435
sI3435
V\u7737
p3436
sI3436
V\u6656
p3437
sI3437
V\u835f
p3438
sI3438
V\u6eaf
p3439
sI3439
V\u6e57
p3440
sI3440
V\u82df
p3441
sI3441
V\u9ec4
p3442
sI3442
V\u6cf7
p3443
sI3443
V\u7436
p3444
sI3444
V\u7f04
p3445
sI3445
V\u6a79
p3446
sI3446
V\u79ed
p3447
sI3447
V\u5deb
p3448
sI3448
V\u78ec
p3449
sI3449
V\u59ae
p3450
sI3450
V\u672d
p3451
sI3451
V\u6b46
p3452
sI3452
V\u77ec
p3453
sI3453
V\u572f
p3454
sI3454
V\u4e43
p3456
sI3456
V\u5580
p3457
sI3457
V\u660f
p3458
sI3458
V\u7535
p3459
sI3459
V\u5898
p3460
sI3460
V\u672f
p3461
sI3461
V\u7f51
p3462
sI3462
V\u7261
p3463
sI3463
V\u8ddf
p3464
sI3464
V\u6e9c
p3465
sI3465
V\u6390
p3466
sI3466
V\u9887
p3467
sI3467
V\u9770
p3468
sI3468
V\u8155
p3469
sI3469
V\u51bc
p3470
sI3470
V\u6c9a
p3471
sI3471
V\u7688
p3472
sI3472
V\u7f1d
p3473
sI3473
V\u6751
p3474
sI3474
V\u50bb
p3475
sI3475
V\u968b
p3476
sI3476
V\u839e
p3477
sI3477
V\u7f2d
p3478
sI3478
V\u788c
p3479
sI3479
V\u7eb2
p3480
sI3480
V\u60e8
p3481
sI3481
V\u6d5a
p3482
sI3482
V\u8d58
p3483
sI3483
V\u53fd
p3484
sI3484
V\u5973
p3485
sI3485
V\u8e87
p3486
sI3486
V\u4fca
p3487
sI3487
V\u8428
p3488
sI3488
V\u6bb4
p3489
sI3489
V\u7832
p3490
sI3490
V\u811a
p3491
sI3491
V\u6593
p3492
sI3492
V\u94db
p3493
sI3493
V\u57a1
p3494
sI3494
V\u675f
p3495
sI3495
V\u69d0
p3496
sI3496
V\u5949
p3497
sI3497
V\u5881
p3498
sI3498
V\u857a
p3499
sI3499
V\u635f
p3500
sI3500
V\u5288
p3501
sI3501
V\u4f1a
p3502
sI3502
V\u6821
p3503
sI3503
V\u4ee4
p3504
sI3504
V\u8700
p3505
sI3505
V\u8f75
p3506
sI3506
V\u5948
p3507
sI3507
V\u7b3a
p3508
sI3508
V\u61cb
p3509
sI3509
V\u5375
p3510
sI3510
V\u5d9a
p3511
sI3511
V\u7ea3
p3512
sI3512
V\u829d
p3513
sI3513
V\u601c
p3514
sI3514
V\u6c38
p3515
sI3515
V\u6b8b
p3516
sI3516
V\u5141
p3517
sI3517
V\u626f
p3518
sI3518
V\u7785
p3519
sI3519
V\u8338
p3520
sI3520
V\u7f05
p3521
sI3521
V\u79f0
p3522
sI3522
V\u787c
p3523
sI3523
V\u7be1
p3524
sI3524
V\u618e
p3525
sI3525
V\u6270
p3526
sI3526
V\u62fd
p3527
sI3527
V\u5e3c
p3528
sI3528
V\u8154
p3529
sI3529
V\u96c0
p3530
sI3530
V\u5589
p3531
sI3531
V\u7238
p3532
sI3532
V\u533b
p3533
sI3533
V\u5fa9
p3534
sI3534
V\u8d5b
p3535
sI3535
V\u5bc7
p3536
sI3536
V\u88f4
p3537
sI3537
V\u975e
p3538
sI3538
V\u5362
p3539
sI3539
V\u5e10
p3540
sI3540
V\u6893
p3541
sI3541
V\u8000
p3542
sI3542
V\u55a7
p3543
sI3543
V\u54a9
p3544
sI3544
V\u54af
p3545
sI3545
V\u70d9
p3546
sI3546
V\u8111
p3547
sI3547
V\u6389
p3548
sI3548
V\u4f11
p3549
sI3549
V\u649e
p3550
sI3550
V\u772f
p3551
sI3551
V\u6ccc
p3552
sI3552
V\u7f9a
p3553
sI3553
V\u9672
p3554
sI3554
V\u733e
p3555
sI3555
V\u4ffe
p3556
sI3556
V\u7eab
p3557
sI3557
V\u5789
p3558
sI3558
V\u9144
p3559
sI3559
V\u7801
p3560
sI3560
V\u72b9
p3561
sI3561
V\u88e4
p3562
sI3562
V\u8113
p3563
sI3563
V\u5d54
p3564
sI3564
V\u57eb
p3565
sI3565
V\u84e5
p3566
sI3566
V\u5219
p3567
sI3567
V\u951c
p3568
sI3568
V\u953b
p3569
sI3569
V\u65fb
p3570
sI3570
V\u7396
p3571
sI3571
V\u5811
p3572
sI3572
V\u98a4
p3573
sI3573
V\u8662
p3574
sI3574
V\u6355
p3575
sI3575
V\u5501
p3576
sI3576
V\u5934
p3577
sI3577
V\u5982
p3578
sI3578
V\u6cfb
p3579
sI3579
V\u81ea
p3580
sI3580
V\u6d11
p3581
sI3581
V\u837b
p3582
sI3582
V\u7c7d
p3583
sI3583
V\u9a6d
p3584
sI3584
V\u4e5e
p3585
sI3585
V\u7fe9
p3586
sI3586
V\u6838
p3587
sI3587
V\u6d2a
p3588
sI3588
V\u5722
p3589
sI3589
V\u661f
p3590
sI3590
V\u682a
p3591
sI3591
V\u8c31
p3592
sI3592
V\u5a55
p3593
sI3593
V\u8360
p3594
sI3594
V\u8d2d
p3595
sI3595
V\u6ecb
p3596
sI3596
V\u707f
p3597
sI3597
V\u9708
p3598
sI3598
V\u7b97
p3599
sI3599
V\u8fbe
p3600
sI3600
V\u624e
p3601
sI3601
V\u70e6
p3602
sI3602
V\u96be
p3603
sI3603
V\u84df
p3604
sI3604
V\u7b7c
p3605
sI3605
V\u6377
p3606
sI3606
V\u51cf
p3607
sI3607
V\u60fa
p3608
sI3608
V\u6cde
p3609
sI3609
V\u796f
p3610
sI3610
V\u59e3
p3611
sI3611
V\u743c
p3612
sI3612
V\u69db
p3613
sI3613
V\u82d7
p3614
sI3614
V\u8d2f
p3615
sI3615
V\u6db2
p3616
sI3616
V\u9c9c
p3617
sI3617
V\u5c9c
p3618
sI3618
V\u9776
p3619
sI3619
V\u68d8
p3620
sI3620
V\u6c69
p3621
sI3621
V\u552f
p3622
sI3622
V\u5245
p3623
sI3623
V\u708e
p3624
sI3624
V\u6cb1
p3625
sI3625
V\u9a8f
p3626
sI3626
V\u8bf8
p3627
sI3627
V\u6841
p3628
sI3628
V\u7556
p3629
sI3629
V\u82a8
p3630
sI3630
V\u6f3e
p3631
sI3631
V\u6000
p3632
sI3632
V\u7321
p3633
sI3633
V\u575f
p3634
sI3634
V\u853c
p3635
sI3635
V\u88f8
p3636
sI3636
V\u5be5
p3637
sI3637
V\u697c
p3638
sI3638
V\u754b
p3639
sI3639
V\u6321
p3640
sI3640
V\u8fea
p3641
sI3641
V\u5cab
p3642
sI3642
V\u592b
p3643
sI3643
V\u9177
p3644
sI3644
V\u5300
p3645
sI3645
V\u8703
p3646
sI3646
V\u51e1
p3647
sI3647
V\u53db
p3648
sI3648
V\u5b59
p3649
sI3649
V\u94e7
p3650
sI3650
V\u6a97
p3651
sI3651
V\u62c6
p3652
sI3652
V\u7b06
p3653
sI3653
V\u5466
p3654
sI3654
V\u6d27
p3655
sI3655
V\u7462
p3656
sI3656
V\u57cc
p3657
sI3657
V\u576e
p3658
sI3658
V\u9ad8
p3659
sI3659
V\u814a
p3660
sI3660
V\u7cae
p3661
sI3661
V\u9619
p3662
sI3662
V\u8236
p3663
sI3663
V\u9706
p3664
sI3664
V\u5e9c
p3665
sI3665
V\u57b1
p3666
sI3666
V\u94a4
p3667
sI3667
V\u846c
p3668
sI3668
V\u81c6
p3669
sI3669
V\u684e
p3670
sI3670
V\u580d
p3671
sI3671
V\u5edb
p3672
sI3672
V\u5c09
p3673
sI3673
V\u5639
p3674
sI3674
V\u8fc1
p3675
sI3675
V\u638f
p3676
sI3676
V\u83c0
p3677
sI3677
V\u9118
p3678
sI3678
V\u4e08
p3679
sI3679
V\u7ebf
p3680
sI3680
V\u5f39
p3681
sI3681
V\u60d1
p3682
sI3682
V\u8f7f
p3683
sI3683
V\u75c2
p3684
sI3684
V\u9d1c
p3685
sI3685
V\u52ff
p3686
sI3686
V\u9e23
p3687
sI3687
V\u5de8
p3688
sI3688
V\u79c3
p3689
sI3689
V\u6c5c
p3690
sI3690
V\u6c26
p3691
sI3691
V\u7d2b
p3692
sI3692
V\u7960
p3693
sI3693
V\u7da6
p3694
sI3694
V\u6545
p3695
sI3695
V\u57e9
p3696
sI3696
V\u83d8
p3697
sI3697
V\u8336
p3698
sI3698
V\u5e15
p3699
sI3699
V\u88d8
p3700
sI3700
V\u7168
p3701
sI3701
V\u7591
p3702
sI3702
V\u76ca
p3703
sI3703
V\u7d6e
p3704
sI3704
V\u9088
p3705
sI3705
V\u6548
p3706
sI3706
V\u6d35
p3707
sI3707
V\u6606
p3708
sI3708
V\u97a1
p3709
sI3709
V\u8a89
p3710
sI3710
V\u5de9
p3711
sI3711
V\u9e25
p3712
sI3712
V\u4ef5
p3713
sI3713
V\u5565
p3714
sI3714
V\u7b11
p3715
sI3715
V\u70c1
p3716
sI3716
V\u8069
p3717
sI3717
V\u5509
p3718
sI3718
V\u8921
p3719
sI3719
V\u63b7
p3720
sI3720
V\u9669
p3721
sI3721
V\u632a
p3722
sI3722
V\u8237
p3723
sI3723
V\u5be1
p3724
sI3724
V\u6fc9
p3725
sI3725
V\u80ea
p3726
sI3726
V\u8912
p3727
sI3727
V\u5201
p3728
sI3728
V\u6cc4
p3729
sI3729
V\u987b
p3730
sI3730
V\u9791
p3731
sI3731
V\u6fc2
p3732
sI3732
V\u997c
p3733
sI3733
V\u7f15
p3734
sI3734
V\u4eea
p3735
sI3735
V\u63ea
p3736
sI3736
V\u8f36
p3737
sI3737
V\u9e2f
p3738
sI3738
V\u5435
p3739
sI3739
V\u4e39
p3740
sI3740
V\u94ba
p3741
sI3741
V\u7262
p3742
sI3742
V\u62b1
p3743
sI3743
V\u951e
p3744
sI3744
V\u664b
p3745
sI3745
V\u4ee5
p3746
sI3746
V\u9e82
p3747
sI3747
V\u5251
p3748
sI3748
V\u7476
p3749
sI3749
V\u7ee2
p3750
sI3750
V\u82af
p3751
sI3751
V\u8c13
p3752
sI3752
V\u623f
p3753
sI3753
V\u5a31
p3754
sI3754
V\u6cd7
p3755
sI3755
V\u5b95
p3756
sI3756
V\u6a2a
p3757
sI3757
V\u85cf
p3758
sI3758
V\u608c
p3759
sI3759
V\u841d
p3760
sI3760
V\u8584
p3761
sI3761
V\u8d2b
p3762
sI3762
V\u86d9
p3763
sI3763
V\u9732
p3764
sI3764
V\u98de
p3765
sI3765
V\u96f6
p3766
sI3766
V\u94ed
p3767
sI3767
V\u5377
p3768
sI3768
V\u6def
p3769
sI3769
V\u5386
p3770
sI3770
V\u8d60
p3771
sI3771
V\u53e6
p3772
sI3772
V\u5754
p3773
sI3773
V\u7aed
p3774
sI3774
V\u8bfb
p3775
sI3775
V\u9b80
p3776
sI3776
V\u7565
p3777
sI3777
V\u67a5
p3778
sI3778
V\u52b2
p3779
sI3779
V\u6d3e
p3780
sI3780
V\u6d54
p3781
sI3781
V\u6b27
p3782
sI3782
V\u53a6
p3783
sI3783
V\u9c81
p3784
sI3784
V\u8749
p3785
sI3785
V\u67d0
p3786
sI3786
V\u6089
p3787
sI3787
V\u6e73
p3788
sI3788
V\u8e0f
p3789
sI3789
V\u5c99
p3790
sI3790
V\u9526
p3791
sI3791
V\u6988
p3792
sI3792
V\u56ca
p3793
sI3793
V\u80c3
p3794
sI3794
V\u8389
p3795
sI3795
V\u4e0a
p3796
sI3796
V\u6816
p3797
sI3797
V\u543e
p3798
sI3798
V\u5f04
p3799
sI3799
V\u9769
p3800
sI3800
V\u7aa8
p3801
sI3801
V\u6fdb
p3802
sI3802
V\u5412
p3803
sI3803
V\u675c
p3804
sI3804
V\u524c
p3805
sI3805
V\u77ed
p3806
sI3806
V\u916e
p3807
sI3807
V\u5308
p3808
sI3808
V\u90b9
p3809
sI3809
V\u7ad9
p3810
sI3810
V\u5bde
p3811
sI3811
V\u61ff
p3812
sI3812
V\u5319
p3813
sI3813
V\u627c
p3814
sI3814
V\u67ff
p3815
sI3815
V\u8427
p3816
sI3816
V\u94b9
p3817
sI3817
V\u59bb
p3818
sI3818
V\u5f79
p3819
sI3819
V\u76a4
p3820
sI3820
V\u8d41
p3821
sI3821
V\u742e
p3822
sI3822
V\u72ad
p3823
sI3823
V\u8892
p3824
sI3824
V\u6f62
p3825
sI3825
V\u5c7f
p3826
sI3826
V\u6400
p3827
sI3827
V\u5b9d
p3828
sI3828
V\u555f
p3829
sI3829
V\u79e4
p3830
sI3830
V\u5740
p3831
sI3831
V\u76c5
p3832
sI3832
V\u868a
p3833
sI3833
V\u7518
p3834
sI3834
V\u8a1a
p3835
sI3835
V\u9053
p3836
sI3836
V\u604d
p3837
sI3837
V\u7f61
p3838
sI3838
V\u9edb
p3839
sI3839
V\u5733
p3840
sI3840
V\u997d
p3841
sI3841
V\u57be
p3842
sI3842
V\u4e16
p3843
sI3843
V\u761f
p3844
sI3844
V\u6795
p3845
sI3845
V\u5c0f
p3846
sI3846
V\u4f74
p3847
sI3847
V\u8e35
p3848
sI3848
V\u6c49
p3849
sI3849
V\u8ff0
p3850
sI3850
V\u667a
p3851
sI3851
V\u51a5
p3852
sI3852
V\u94b1
p3853
sI3853
V\u52a1
p3854
sI3854
V\u4ecb
p3855
sI3855
V\u8bc9
p3856
sI3856
V\u61ca
p3857
sI3857
V\u7b03
p3858
sI3858
V\u78d4
p3859
sI3859
V\u53c1
p3860
sI3860
V\u5e74
p3861
sI3861
V\u80d6
p3862
sI3862
V\u9557
p3863
sI3863
V\u502c
p3864
sI3864
V\u8f71
p3865
sI3865
V\u8106
p3866
sI3866
V\u5719
p3867
sI3867
V\u6fa5
p3868
sI3868
V\u664f
p3869
sI3869
V\u745c
p3870
sI3870
V\u7f91
p3871
sI3871
V\u8098
p3872
sI3872
V\u82f1
p3873
sI3873
V\u53c8
p3874
sI3874
V\u7825
p3875
sI3875
V\u6d88
p3876
sI3876
V\u5af1
p3877
sI3877
V\u5f26
p3878
sI3878
V\u5f07
p3879
sI3879
V\u9e73
p3880
sI3880
V\u901f
p3881
sI3881
V\u89de
p3882
sI3882
V\u4e0d
p3883
sI3883
V\u9cb9
p3884
sI3884
V\u66e9
p3885
sI3885
V\u752f
p3886
sI3886
V\u660a
p3887
sI3887
V\u53eb
p3888
sI3888
V\u5710
p3889
sI3889
V\u57dd
p3890
sI3890
V\u4e00
p3891
sI3891
V\u853a
p3892
sI3892
V\u6ed4
p3893
sI3893
V\u5e01
p3894
sI3894
V\u529d
p3895
sI3895
V\u9b4f
p3896
sI3896
V\u6eb1
p3897
sI3897
V\u519c
p3898
sI3898
V\u5c3c
p3899
sI3899
V\u75d4
p3900
sI3900
V\u97ad
p3901
sI3901
V\u68f1
p3902
sI3902
V\u6714
p3903
sI3903
V\u970d
p3904
sI3904
V\u592a
p3905
sI3905
V\u7ec4
p3906
sI3906
V\u90aa
p3907
sI3907
V\u5fc5
p3908
sI3908
V\u6c64
p3909
sI3909
V\u6a28
p3910
sI3910
V\u9a72
p3911
sI3911
V\u6e21
p3912
sI3912
V\u51f0
p3913
sI3913
V\u4ec1
p3914
sI3914
V\u6b6a
p3915
sI3915
V\u8e66
p3916
sI3916
V\u6a5b
p3917
sI3917
V\u5345
p3918
sI3918
V\u90a2
p3919
sI3919
V\u830c
p3920
sI3920
V\u5faa
p3921
sI3921
V\u732a
p3922
sI3922
V\u6768
p3923
sI3923
V\u5e2d
p3924
sI3924
V\u6d17
p3925
sI3925
V\u627e
p3926
sI3926
V\u5207
p3927
sI3927
V\u545c
p3928
sI3928
V\u6d9b
p3929
sI3929
V\u6749
p3930
sI3930
V\u919b
p3931
sI3931
V\u5203
p3932
sI3932
V\u5fc3
p3933
sI3933
V\u65ec
p3934
sI3934
V\u6881
p3935
sI3935
V\u6733
p3936
sI3936
V\u5e18
p3937
sI3937
V\u725b
p3938
sI3938
V\u5189
p3939
sI3939
V\u5bbd
p3940
sI3940
V\u8c01
p3941
sI3941
V\u5bbe
p3942
sI3942
V\u8d44
p3943
sI3943
V\u7f2b
p3944
sI3944
V\u7fd5
p3945
sI3945
V\u911a
p3946
sI3946
V\u8919
p3947
sI3947
V\u4f0f
p3948
sI3948
V\u8393
p3949
sI3949
V\u8f97
p3950
sI3950
V\u828e
p3951
sI3951
V\u8a8a
p3952
sI3952
V\u65bd
p3953
sI3953
V\u6aac
p3954
sI3954
V\u8ba4
p3955
sI3955
V\u501a
p3956
sI3956
V\u5f90
p3957
sI3957
V\u6362
p3958
sI3958
V\u4f76
p3959
sI3959
V\u5b50
p3960
sI3960
V\u6607
p3961
sI3961
V\u5cad
p3962
sI3962
V\u9884
p3963
sI3963
V\u836f
p3964
sI3964
V\u7fa4
p3965
sI3965
V\u8747
p3966
sI3966
V\u9a7e
p3967
sI3967
V\u73a9
p3968
sI3968
V\u63e1
p3969
sI3969
V\u5919
p3970
sI3970
V\u9cab
p3972
sI3972
V\u7891
p3973
sI3973
V\u51a2
p3974
sI3974
V\u6d8e
p3975
sI3975
V\u6614
p3976
sI3976
V\u5858
p3977
sI3977
V\u695a
p3978
sI3978
V\u956c
p3979
sI3979
V\u7b95
p3980
sI3980
V\u7403
p3981
sI3981
V\u7eff
p3982
sI3982
V\u54e5
p3983
sI3983
V\u6350
p3984
sI3984
V\u911e
p3985
sI3985
V\u548c
p3986
sI3986
V\u51e0
p3987
sI3987
V\u8198
p3988
sI3988
V\u7337
p3989
sI3989
V\u52c7
p3990
sI3990
V\u6237
p3991
sI3991
V\u9017
p3992
sI3992
V\u76fc
p3993
sI3993
V\u965b
p3994
sI3994
V\u83cc
p3995
sI3995
V\u94fa
p3996
sI3996
V\u688c
p3997
sI3997
V\u767e
p3998
sI3998
V\u7076
p3999
sI3999
V\u4f55
p4000
sI4000
V\u8328
p4001
sI4001
V\u70f7
p4002
sI4002
V\u94bb
p4003
sI4003
V\u6735
p4004
sI4004
V\u6860
p4005
sI4005
V\u8d8b
p4006
sI4006
V\u88ad
p4007
sI4007
V\u90a8
p4008
sI4008
V\u5fd7
p4009
sI4009
V\u66f3
p4010
sI4010
V\u9686
p4011
sI4011
V\u5230
p4012
sI4012
V\u626c
p4013
sI4013
V\u6d6a
p4014
sI4014
V\u72f1
p4015
sI4015
V\u9634
p4016
sI4016
V\u81ed
p4017
sI4017
V\u63a0
p4018
sI4018
V\u6842
p4019
sI4019
V\u6446
p4020
sI4020
V\u8273
p4021
sI4021
V\u9885
p4022
sI4022
V\u5c9e
p4023
sI4023
V\u751c
p4024
sI4024
V\u6a91
p4025
sI4025
V\u6cc5
p4026
sI4026
V\u76ce
p4027
sI4027
V\u758f
p4028
sI4028
V\u7a9f
p4029
sI4029
V\u74c8
p4030
sI4030
V\u87d1
p4031
sI4031
V\u5723
p4032
sI4032
V\u845b
p4033
sI4033
V\u73cf
p4034
sI4034
V\u6853
p4035
sI4035
V\u817a
p4036
sI4036
V\u61ac
p4037
sI4037
V\u5d4c
p4038
sI4038
V\u6d1e
p4039
sI4039
V\u57e0
p4040
sI4040
V\u63aa
p4041
sI4041
V\u7d27
p4042
sI4042
V\u68cd
p4043
sI4043
V\u9602
p4044
sI4044
V\u94c9
p4045
sI4045
V\u6924
p4046
sI4046
V\u70bd
p4047
sI4047
V\u6162
p4048
sI4048
V\u868c
p4049
sI4049
V\u7f2e
p4050
sI4050
V\u6015
p4051
sI4051
V\u830e
p4052
sI4052
V\u886c
p4053
sI4053
V\u6320
p4054
sI4054
V\u6f89
p4055
sI4055
V\u7b75
p4056
sI4056
V\u90ea
p4057
sI4057
V\u7eb9
p4058
sI4058
V\u5c5e
p4059
sI4059
V\u6108
p4060
sI4060
V\u8c05
p4061
sI4061
V\u5c3e
p4062
sI4062
V\u4e1e
p4063
sI4063
V\u5480
p4064
sI4064
V\u65cc
p4065
sI4065
V\u51b6
p4066
sI4066
V\u7fb2
p4067
sI4067
V\u6d72
p4068
sI4068
V\u4f88
p4069
sI4069
V\u7834
p4070
sI4070
V\u8d31
p4071
sI4071
V\u53a9
p4072
sI4072
V\u6bd9
p4073
sI4073
V\u72fc
p4074
sI4074
V\u8205
p4075
sI4075
V\u90a1
p4076
sI4076
V\u5586
p4077
sI4077
V\u65ad
p4078
sI4078
V\u8757
p4079
sI4079
V\u9773
p4080
sI4080
V\u6fd2
p4081
sI4081
V\u6691
p4082
sI4082
V\u6c34
p4083
sI4083
V\u812f
p4084
sI4084
V\u5eb9
p4085
sI4085
V\u77bb
p4086
sI4086
V\u837c
p4087
sI4087
V\u951f
p4088
sI4088
V\u997a
p4089
sI4089
V\u7981
p4090
sI4090
V\u6604
p4091
sI4091
V\u5ce6
p4092
sI4092
V\u6806
p4093
sI4093
V\u8fe2
p4094
sI4094
V\u56ed
p4095
sI4095
V\u517d
p4096
sI4096
V\u54f2
p4097
sI4097
V\u71e7
p4098
sI4098
V\u5254
p4099
sI4099
V\u7075
p4100
sI4100
V\u7f94
p4101
sI4101
V\u4fe9
p4102
sI4102
V\u5d16
p4103
sI4103
V\u5f8b
p4104
sI4104
V\u540e
p4105
sI4105
V\u72e1
p4106
sI4106
V\u5e78
p4107
sI4107
V\u5374
p4108
sI4108
V\u549b
p4109
sI4109
V\u9a7b
p4110
sI4110
V\u5a76
p4111
sI4111
V\u8258
p4112
sI4112
V\u74f4
p4113
sI4113
V\u5e32
p4114
sI4114
V\u78cb
p4115
sI4115
V\u4e32
p4116
sI4116
V\u614c
p4117
sI4117
V\u54c1
p4118
sI4118
V\u904f
p4119
sI4119
V\u6979
p4120
sI4120
V\u5647
p4121
sI4121
V\u7184
p4122
sI4122
V\u78a1
p4123
sI4123
V\u6e2b
p4124
sI4124
V\u533a
p4125
sI4125
V\u74f6
p4126
sI4126
V\u7af9
p4127
sI4127
V\u8116
p4128
sI4128
V\u9896
p4129
sI4129
V\u7b08
p4130
sI4130
V\u5e55
p4131
sI4131
V\u4e0b
p4132
sI4132
V\u7269
p4133
sI4133
V\u5bd3
p4134
sI4134
V\u5404
p4135
sI4135
V\u637b
p4136
sI4136
V\u954a
p4137
sI4137
V\u996f
p4138
sI4138
V\u594f
p4139
sI4139
V\u794e
p4140
sI4140
V\u5703
p4141
sI4141
V\u6dbf
p4142
sI4142
V\u59b2
p4143
sI4143
V\u4e8b
p4144
sI4144
V\u8888
p4145
sI4145
V\u56f4
p4146
sI4146
V\u7ef8
p4147
sI4147
V\uff09
p4148
sI4148
V\u6839
p4149
sI4149
V\u8682
p4150
sI4150
V\u94c3
p4151
sI4151
V\u4e62
p4152
sI4152
V\u7164
p4153
sI4153
V\u76d6
p4154
sI4154
V\u5a32
p4155
sI4155
V\u6bb7
p4156
sI4156
V\u4e6a
p4157
sI4157
V\u6655
p4158
sI4158
V\u7728
p4159
sI4159
V\u9632
p4160
sI4160
V\u6485
p4161
sI4161
V\u634f
p4162
sI4162
V\u77fe
p4163
sI4163
V\u762a
p4164
sI4164
V\u96f7
p4165
sI4165
V\u98a1
p4166
sI4166
V\u510b
p4167
sI4167
V\u82a9
p4168
sI4168
V\u67f0
p4169
sI4169
V\u8d3f
p4170
sI4170
V\u5de5
p4171
sI4171
V\u4e4d
p4172
sI4172
V\u584c
p4173
sI4173
V\u4eab
p4174
sI4174
V\u50f3
p4175
sI4175
V\u5389
p4176
sI4176
V\u6c27
p4177
sI4177
V\u7cdf
p4178
sI4178
V\u59b9
p4179
sI4179
V\u5bdd
p4180
sI4180
V\u5c3a
p4181
sI4181
V\u8331
p4182
sI4182
V\u9997
p4183
sI4183
V\u5996
p4184
sI4184
V\u62ed
p4185
sI4185
V\u8202
p4186
sI4186
V\u6bd4
p4187
sI4187
V\u59c6
p4188
sI4188
V\u9a77
p4189
sI4189
V\u889c
p4190
sI4190
V\u4e3f
p4191
sI4191
V\u82fd
p4192
sI4192
V\u5ee8
p4193
sI4193
V\u82a1
p4194
sI4194
V\u7247
p4195
sI4195
V\u7abf
p4196
sI4196
V\u62bc
p4197
sI4197
V\u9981
p4198
sI4198
V\u775b
p4199
sI4199
V\u72d9
p4200
sI4200
V\u9e69
p4201
sI4201
V\u54ee
p4202
sI4202
V\u9a8a
p4203
sI4203
V\u5c82
p4204
sI4204
V\u6983
p4205
sI4205
V\u67aa
p4206
sI4206
V\u6d6c
p4207
sI4207
V\u8e6c
p4208
sI4208
V\u5bff
p4209
sI4209
V\u8438
p4210
sI4210
V\u74e0
p4211
sI4211
V\u965f
p4212
sI4212
V\u568f
p4213
sI4213
V\u624d
p4214
sI4214
V\u7c73
p4215
sI4215
V\u5631
p4216
sI4216
V\u5b64
p4217
sI4217
V\u80ae
p4218
sI4218
V\u8b6c
p4219
sI4219
V\u5566
p4220
sI4220
V\u72e0
p4221
sI4221
V\u85e9
p4222
sI4222
V\u7be2
p4223
sI4223
V\u51f3
p4224
sI4224
V\u8223
p4225
sI4225
V\u916a
p4226
sI4226
V\u6f15
p4227
sI4227
V\u900d
p4228
sI4228
V\u998b
p4229
sI4229
V\u6d43
p4230
sI4230
V\u87e0
p4231
sI4231
V\u90b1
p4232
sI4232
V\u76ae
p4233
sI4233
V\u67e5
p4234
sI4234
V\u54b3
p4235
sI4235
V\u789a
p4236
sI4236
V\u522e
p4237
sI4237
V\u8c0b
p4238
sI4238
V\u7c3f
p4239
sI4239
V\u5d47
p4240
sI4240
V\u69ce
p4241
sI4241
V\u784e
p4242
sI4242
V\u826e
p4243
sI4243
V\u89c8
p4244
sI4244
V\u9f3b
p4245
sI4245
V\u7ed3
p4246
sI4246
V\u8c17
p4247
sI4247
V\u5012
p4248
sI4248
V\u7b90
p4249
sI4249
V\u8856
p4250
sI4250
V\u8513
p4251
sI4251
V\u83bc
p4252
sI4252
V\u710a
p4253
sI4253
V\u5a74
p4254
sI4254
V\u6e0d
p4255
sI4255
V\u7ca5
p4256
sI4256
V\u800d
p4257
sI4257
V\u6016
p4258
sI4258
V\u542d
p4259
sI4259
V\u65f1
p4260
sI4260
V\u9010
p4261
sI4261
V\u8f94
p4262
sI4262
V\u77a5
p4263
sI4263
V\u960c
p4264
sI4264
V\u867a
p4265
sI4265
V\u6df1
p4266
sI4266
V\u6939
p4267
sI4267
V\u78f4
p4268
sI4268
V\u746f
p4269
sI4269
V\u8bd2
p4270
sI4270
V\u7ae5
p4271
sI4271
V\u8d61
p4272
sI4272
V\u62f4
p4273
sI4273
V\u4e30
p4274
sI4274
V\u90dc
p4276
sI4276
V\u5440
p4277
sI4277
V\u5b5c
p4278
sI4278
V\u51ed
p4279
sI4279
V\u9890
p4280
sI4280
V\u6ca9
p4281
sI4281
V\u5217
p4282
sI4282
V\u5785
p4283
sI4283
V\u5d80
p4284
sI4284
V\u7b14
p4285
sI4285
V\u5f52
p4286
sI4286
V\u5f31
p4287
sI4287
V\u5bb3
p4288
sI4288
V\u7978
p4289
sI4289
V\u7ea2
p4290
sI4290
V\u8be0
p4291
sI4291
V\u72f0
p4292
sI4292
V\u9171
p4293
sI4293
V\u5c4e
p4294
sI4294
V\u76ee
p4295
sI4295
V\u523a
p4296
sI4296
V\u5a77
p4297
sI4297
V\u728a
p4298
sI4298
V\u5846
p4299
sI4299
V\u5c51
p4300
sI4300
V\u5a92
p4301
sI4301
V\u5baa
p4302
sI4302
V\u60ca
p4303
sI4303
V\u7aa5
p4304
sI4304
V\u7eca
p4305
sI4305
V\u7487
p4306
sI4306
V\u5b7a
p4307
sI4307
V\u6caa
p4308
sI4308
V\u6414
p4309
sI4309
V\u7f45
p4310
sI4310
V\u6744
p4311
sI4311
V\u5026
p4312
sI4312
V\u5c50
p4313
sI4313
V\u8d66
p4314
sI4314
V\u6ec7
p4315
sI4315
V\u9759
p4316
sI4316
V\u4e5f
p4317
sI4317
V\u610f
p4318
sI4318
V\u5ada
p4319
sI4319
V\u79df
p4320
sI4320
V\u866c
p4321
sI4321
V\u6042
p4322
sI4322
V\u671b
p4323
sI4323
V\u7f13
p4324
sI4324
V\u6786
p4325
sI4325
V\u969c
p4326
sI4326
V\u54ce
p4327
sI4327
V\u5cbf
p4328
sI4328
V\u5800
p4329
sI4329
V\u7435
p4330
sI4330
V\u8d50
p4331
sI4331
V\u5c41
p4332
sI4332
V\u60bc
p4333
sI4333
V\u6c5b
p4334
sI4334
V\u9b9c
p4335
sI4335
V\u82bd
p4336
sI4336
V\u5783
p4337
sI4337
V\u86c0
p4338
sI4338
V\u9e41
p4339
sI4339
V\u5ac1
p4340
sI4340
V\u68e3
p4341
sI4341
V\u5df7
p4342
sI4342
V\u95f2
p4343
sI4343
V\u6dd8
p4344
sI4344
V\u5ea7
p4345
sI4345
V\u6d53
p4346
sI4346
V\u6556
p4347
sI4347
V\u6e11
p4348
sI4348
V\u660c
p4349
sI4349
V\u7531
p4350
sI4350
V\u6625
p4351
sI4351
V\u6d39
p4352
sI4352
V\u785d
p4353
sI4353
V\u5709
p4354
sI4354
V\u5927
p4355
sI4355
V\u6912
p4356
sI4356
V\u6e14
p4357
sI4357
V\u5e97
p4358
sI4358
V\u6676
p4359
sI4359
V\u6c68
p4360
sI4360
V\u8bdd
p4361
sI4361
V\u9004
p4362
sI4362
V\u79fd
p4363
sI4363
V\u6349
p4364
sI4364
V\u5a9b
p4365
sI4365
V\u5620
p4366
sI4366
V\u79d8
p4367
sI4367
V\u7fc5
p4368
sI4368
V\u6170
p4369
sI4369
V\u4ec0
p4370
sI4370
V\u5e5e
p4371
sI4371
V\u5197
p4372
sI4372
V\u783b
p4373
sI4373
V\u78fb
p4374
sI4374
V\u4f2f
p4375
sI4375
V\u5cf1
p4376
sI4376
V\u767b
p4377
sI4377
V\u69a7
p4378
sI4378
V\u634d
p4379
sI4379
V\u9a81
p4380
sI4380
V\u568e
p4381
sI4381
V\u672a
p4382
sI4382
V\u56e0
p4383
sI4383
V\u5c60
p4384
sI4384
V\u94a1
p4385
sI4385
V\u77b0
p4386
sI4386
V\u6664
p4387
sI4387
V\u8238
p4388
sI4388
V\u548f
p4389
sI4389
V\u79eb
p4390
sI4390
V\u6da4
p4391
sI4391
V\u5e8a
p4392
sI4392
V\u808b
p4393
sI4393
V\u621b
p4394
sI4394
V\u4e38
p4395
sI4395
V\u6bef
p4396
sI4396
V\u76f8
p4397
sI4397
V\u54ed
p4398
sI4398
V\u53c9
p4399
sI4399
V\u4f0d
p4400
sI4400
V\u91cd
p4401
sI4401
V\u85f4
p4402
sI4402
V\u53bb
p4403
sI4403
V\u5f53
p4404
sI4404
V\u5218
p4405
sI4405
V\u56d7
p4406
sI4406
V\u8179
p4407
sI4407
V\u9738
p4408
sI4408
V\u5273
p4409
sI4409
V\u6bc5
p4410
sI4410
V\u558a
p4411
sI4411
V\u9980
p4412
sI4412
V\u5ced
p4413
sI4413
V\u55c4
p4414
sI4414
V\u9c88
p4415
sI4415
V\u77f6
p4416
sI4416
V\u60dc
p4417
sI4417
V\u586c
p4418
sI4418
V\u5634
p4419
sI4419
V\u5b83
p4420
sI4420
V\u6ea2
p4421
sI4421
V\u5a1f
p4422
sI4422
V\u9668
p4423
sI4423
V\u7eef
p4424
sI4424
V\u65d7
p4425
sI4425
V\u53e9
p4426
sI4426
V\u8fee
p4427
sI4427
V\u80fa
p4428
sI4428
V\u82d4
p4429
sI4429
V\u8d77
p4430
sI4430
V\u8c89
p4431
sI4431
V\u976c
p4432
sI4432
V\u57ed
p4433
sI4433
V\u8d56
p4434
sI4434
V\u7857
p4435
sI4435
V\u8c06
p4436
sI4436
V\u6b64
p4437
sI4437
V\u830d
p4438
sI4438
V\u7a76
p4439
sI4439
V\u9f9f
p4440
sI4440
V\u73ee
p4441
sI4441
V\u6ed1
p4442
sI4442
V\u58a9
p4443
sI4443
V\u87b3
p4444
sI4444
V\u8bbc
p4445
sI4445
V\u6d41
p4446
sI4446
V\u518c
p4447
sI4447
V\u71ee
p4448
sI4448
V\u6cbd
p4449
sI4449
V\u897f
p4450
sI4450
V\u834f
p4451
sI4451
V\u825a
p4452
sI4452
V\u5ad4
p4453
sI4453
V\u9f50
p4454
sI4454
V\u7a3f
p4455
sI4455
V\u997f
p4456
sI4456
V\u771f
p4457
sI4457
V\u6e90
p4458
sI4458
V\u6a18
p4459
sI4459
V\u96e8
p4460
sI4460
V\u5055
p4461
sI4461
V\u5e05
p4462
sI4462
V\u82ae
p4463
sI4463
V\u5f77
p4464
sI4464
V\u8231
p4465
sI4465
V\u90dd
p4466
sI4466
V\u5398
p4467
sI4467
V\u7f11
p4468
sI4468
V\u4ed4
p4469
sI4469
V\u60a0
p4470
sI4470
V\u8d74
p4471
sI4471
V\u7bac
p4472
sI4472
V\u6cab
p4473
sI4473
V\u9a88
p4474
sI4474
V\u786c
p4475
sI4475
V\u8a93
p4476
sI4476
V\u68a8
p4477
sI4477
V\u73d0
p4478
sI4478
V\u50f5
p4479
sI4479
V\u77e2
p4480
sI4480
V\u6854
p4481
sI4481
V\u895f
p4482
sI4482
V\u6551
p4483
sI4483
V\u82d3
p4484
sI4484
V\u5168
p4485
sI4485
V\u5fa8
p4486
sI4486
V\u8019
p4487
sI4487
V\u7b04
p4488
sI4488
V\u7682
p4489
sI4489
V\u964c
p4490
sI4490
V\u4fd7
p4491
sI4491
V\u89c5
p4492
sI4492
V\u6e1a
p4493
sI4493
V\u6d8c
p4494
sI4494
V\u5202
p4495
sI4495
V\u71ca
p4496
sI4496
V\u7792
p4497
sI4497
V\u88df
p4498
sI4498
V\u9a91
p4499
sI4499
V\u5382
p4500
sI4500
V\u4f73
p4501
sI4501
V\u626d
p4502
sI4502
V\u9976
p4503
sI4503
V\u5d58
p4504
sI4504
V\u5915
p4505
sI4505
V\u6a84
p4506
sI4506
V\u83f2
p4507
sI4507
V\u5228
p4508
sI4508
V\u6697
p4509
sI4509
V\u79e7
p4510
sI4510
V\u6844
p4511
sI4511
V\u7398
p4512
sI4512
V\u6cef
p4513
sI4513
V\u9521
p4514
sI4514
V\u7829
p4515
sI4515
V\u9707
p4516
sI4516
V\u5988
p4517
sI4517
V\u756a
p4518
sI4518
V\u51c6
p4519
sI4519
V\u76f4
p4520
sI4520
V\u73c9
p4521
sI4521
V\u7cbd
p4522
sI4522
V\u6458
p4523
sI4523
V\u5bd0
p4524
sI4524
V\u732e
p4525
sI4525
V\u70bc
p4526
sI4526
V\u8361
p4527
sI4527
V\u9e3d
p4528
sI4528
V\u54e6
p4529
sI4529
V\u6dc4
p4530
sI4530
V\u6c70
p4531
sI4531
V\u6012
p4532
sI4532
V\u5349
p4533
sI4533
V\u5176
p4534
sI4534
V\u62c5
p4535
sI4535
V\u4f4e
p4536
sI4536
V\u6123
p4537
sI4537
V\u65a7
p4538
sI4538
V\u75e3
p4539
sI4539
V\u80a5
p4540
sI4540
V\u5f8a
p4541
sI4541
V\u955b
p4542
sI4542
V\u55e3
p4543
sI4543
V\u6684
p4544
sI4544
V\u7f38
p4545
sI4545
V\u8c19
p4546
sI4546
V\u82d1
p4547
sI4547
V\u67ec
p4548
sI4548
V\u5065
p4549
sI4549
V\u76fe
p4550
sI4550
V\u6bcf
p4551
sI4551
V\u8c47
p4552
sI4552
V\u8bc6
p4553
sI4553
V\u607a
p4554
sI4554
V\u501c
p4555
sI4555
V\u58ba
p4556
sI4556
V\u5e96
p4557
sI4557
V\u8c23
p4558
sI4558
V\u69b4
p4559
sI4559
V\u7965
p4560
sI4560
V\u7a77
p4561
sI4561
V\u5ce8
p4562
sI4562
V\u9e9d
p4563
sI4563
V\u8230
p4564
sI4564
V\u5a23
p4565
sI4565
V\u666f
p4566
sI4566
V\u4e8f
p4567
sI4567
V\u964b
p4569
sI4569
V\u5ea0
p4570
sI4570
V\u6539
p4571
sI4571
V\u7a9d
p4572
sI4572
V\u7f69
p4573
sI4573
V\u8f83
p4574
sI4574
V\u696f
p4575
sI4575
V\u86a9
p4576
sI4576
V\u8877
p4577
sI4577
V\u6316
p4578
sI4578
V\u8f7b
p4579
sI4579
V\u96b6
p4580
sI4580
V\u5de7
p4581
sI4581
V\u9541
p4582
sI4582
V\u8dfa
p4583
sI4583
V\u5112
p4584
sI4584
V\u7f62
p4585
sI4585
V\u631b
p4586
sI4586
V\u5b5d
p4587
sI4587
V\u8d42
p4588
sI4588
V\u5088
p4589
sI4589
V\u7599
p4590
sI4590
V\u5395
p4591
sI4591
V\u638c
p4592
sI4592
V\u740a
p4593
sI4593
V\u58f6
p4594
sI4594
V\u8e72
p4595
sI4595
V\u6d4a
p4596
sI4596
V\u53f7
p4597
sI4597
V\u9a6f
p4598
sI4598
V\u9099
p4599
sI4599
V\u8748
p4600
sI4600
V\u6d49
p4601
sI4601
V\u888b
p4602
sI4602
V\u5a13
p4603
sI4603
V\u515c
p4604
sI4604
V\u6c0f
p4605
sI4605
V\u4e22
p4606
sI4606
V\u909d
p4607
sI4607
V\u5892
p4608
sI4608
V\u706b
p4609
sI4609
V\u6062
p4610
sI4610
V\u91cf
p4611
sI4611
V\u75d8
p4612
sI4612
V\u5f20
p4613
sI4613
V\u5bfc
p4614
sI4614
V\u97a0
p4615
sI4615
V\u59dd
p4616
sI4616
V\u757f
p4617
sI4617
V\u56e1
p4618
sI4618
V\u4f70
p4619
sI4619
V\u50cf
p4620
sI4620
V\u65e8
p4621
sI4621
V\u96c6
p4622
sI4622
V\u5c95
p4623
sI4623
V\u6688
p4624
sI4624
V\u6fa7
p4625
sI4625
V\u8031
p4626
sI4626
V\u4e2d
p4627
sI4627
V\u903c
p4628
sI4628
V\u6aba
p4629
sI4629
V\u765e
p4630
sI4630
V\u7a84
p4631
sI4631
V\u8863
p4632
sI4632
V\u53ee
p4633
sI4633
V\u670b
p4634
sI4634
V\u966c
p4635
sI4635
V\u7578
p4636
sI4636
V\u7a74
p4637
sI4637
V\u63d2
p4638
sI4638
V\u7adc
p4639
sI4639
V\u9876
p4640
sI4640
V\u4e94
p4641
sI4641
V\u9e4a
p4642
sI4642
V\u83ab
p4643
sI4643
V\u6380
p4644
sI4644
V\u620e
p4645
sI4645
V\u6781
p4646
sI4646
V\u6700
p4647
sI4647
V\u817e
p4648
sI4648
V\u633d
p4649
sI4649
V\u6cbf
p4650
sI4650
V\u810f
p4651
sI4651
V\u7fca
p4652
sI4652
V\u6234
p4653
sI4653
V\u96fe
p4654
sI4654
V\u4e3e
p4655
sI4655
V\u5a25
p4656
sI4656
V\u59cb
p4657
sI4657
V\u7ee3
p4658
sI4658
V\u76d8
p4659
sI4659
V\u59d7
p4660
sI4660
V\u4f36
p4661
sI4661
V\u8247
p4662
sI4662
V\u4f67
p4663
sI4663
V\u4f89
p4664
sI4664
V\u6c84
p4665
sI4665
V\u4f3e
p4666
sI4666
V\u4ee8
p4667
sI4667
V\u7cd9
p4668
sI4668
V\u614e
p4669
sI4669
V\u7f19
p4670
sI4670
V\u57c2
p4671
sI4671
V\u6657
p4672
sI4672
V\u4e49
p4673
sI4673
V\u4fc4
p4674
sI4674
V\u7384
p4675
sI4675
V\u7470
p4676
sI4676
V\u62e6
p4677
sI4677
V\u5941
p4678
sI4678
V\u9009
p4679
sI4679
V\u6ce3
p4680
sI4680
V\u8043
p4681
sI4681
V\u6a01
p4682
sI4682
V\u6266
p4683
sI4683
V\u5d69
p4684
sI4684
V\u52ad
p4685
sI4685
V\u5352
p4686
sI4686
V\u51fa
p4687
sI4687
V\u9662
p4688
sI4688
V\u95fd
p4689
sI4689
V\u8096
p4690
sI4690
V\u4ed7
p4691
sI4691
V\u7bd3
p4692
sI4692
V\u6ef9
p4693
sI4693
V\u8709
p4694
sI4694
V\u60a6
p4695
sI4695
V\u81c3
p4696
sI4696
V\u676f
p4697
sI4697
V\u53cd
p4698
sI4698
V\u7fc1
p4699
sI4699
V\u4e3a
p4700
sI4700
V\u5e27
p4701
sI4701
V\u950b
p4702
sI4702
V\u6668
p4703
sI4703
V\u7f36
p4704
sI4704
V\u5c38
p4705
sI4705
V\u57ef
p4706
sI4706
V\u56f5
p4707
sI4707
V\u9614
p4708
sI4708
V\u952f
p4709
sI4709
V\u6e6b
p4710
sI4710
V\u77f8
p4711
sI4711
V\u7956
p4712
sI4712
V\u8df3
p4713
sI4713
V\u95e8
p4714
sI4714
V\u67af
p4715
sI4715
V\u62ce
p4716
sI4716
V\u9e49
p4717
sI4717
V\u83b1
p4718
sI4718
V\u561f
p4719
sI4719
V\u653b
p4720
sI4720
V\u73ed
p4721
sI4721
V\u75ca
p4722
sI4722
V\u82b7
p4723
sI4723
V\u5507
p4724
sI4724
V\u6d91
p4725
sI4725
V\u8292
p4726
sI4726
V\u7855
p4727
sI4727
V\u8401
p4728
sI4728
V\u6ee1
p4729
sI4729
V\u5ad8
p4730
sI4730
V\u87e5
p4731
sI4731
V\u9097
p4732
sI4732
V\u539f
p4733
sI4733
V\u8c7a
p4734
sI4734
V\u5ecd
p4735
sI4735
V\u5b71
p4736
sI4736
V\u6e43
p4737
sI4737
V\u8327
p4738
sI4738
V\u9633
p4739
sI4739
V\u4e98
p4740
sI4740
V\u8297
p4741
sI4741
V\u666e
p4742
sI4742
V\u9038
p4743
sI4743
V\u7f30
p4744
sI4744
V\u5f6a
p4745
sI4745
V\u8d75
p4746
sI4746
V\u9525
p4747
sI4747
V\u75d5
p4748
sI4748
V\u57e8
p4749
sI4749
V\u5bdf
p4750
sI4750
V\u54d7
p4751
sI4751
V\u7edd
p4752
sI4752
V\u9157
p4753
sI4753
V\u82be
p4754
sI4754
V\u836b
p4755
sI4755
V\u67a7
p4756
sI4756
V\u4fdf
p4757
sI4757
V\u576f
p4758
sI4758
V\u697b
p4759
sI4759
V\u5987
p4760
sI4760
V\u783e
p4761
sI4761
V\u886b
p4762
sI4762
V\u9e67
p4763
sI4763
V\u527f
p4764
sI4764
V\u8e4b
p4765
sI4765
V\u86ac
p4766
sI4766
V\u6d19
p4767
sI4767
V\u7a70
p4768
sI4768
V\u8d84
p4769
sI4769
V\u9563
p4770
sI4770
V\u83aa
p4771
sI4771
V\u6068
p4772
sI4772
V\u4ea8
p4773
sI4773
V\u9a79
p4774
sI4774
V\u7f74
p4775
sI4775
V\u6942
p4776
sI4776
V\u5121
p4777
sI4777
V\u54e8
p4778
sI4778
V\u5269
p4779
sI4779
V\u79e9
p4780
sI4780
V\u919a
p4781
sI4781
V\u577b
p4782
sI4782
V\u7987
p4783
sI4783
V\u8037
p4784
sI4784
V\u4fed
p4785
sI4785
V\u7a20
p4786
sI4786
V\u7426
p4787
sI4787
V\u5a75
p4788
sI4788
V\u90b6
p4789
sI4789
V\u8109
p4790
sI4790
V\u6c40
p4791
sI4791
V\u6cd3
p4792
sI4792
V\u9102
p4793
sI4793
V\u5bf0
p4794
sI4794
V\u8343
p4795
sI4795
V\u8718
p4796
sI4796
V\u6c13
p4797
sI4797
V\u853d
p4798
sI4798
V\u5c65
p4799
sI4799
V\u759a
p4800
sI4800
V\u676e
p4801
sI4801
V\u94f3
p4802
sI4802
V\u88c5
p4803
sI4803
V\u65a4
p4804
sI4804
V\u4f63
p4805
sI4805
V\u79be
p4806
sI4806
V\u804a
p4807
sI4807
V\u4ed3
p4808
sI4808
V\u67f4
p4809
sI4809
V\u6222
p4810
sI4810
V\u825e
p4811
sI4811
V\u9044
p4812
sI4812
V\u624b
p4813
sI4813
V\u6500
p4814
sI4814
V\u62fe
p4815
sI4815
V\u4e9b
p4816
sI4816
V\u4f18
p4817
sI4817
V\u7533
p4818
sI4818
V\u67d1
p4819
sI4819
V\u7ec0
p4820
sI4820
V\u9648
p4821
sI4821
V\u6cfa
p4822
sI4822
V\u631e
p4823
sI4823
V\u5c8d
p4824
sI4824
V\u8346
p4825
sI4825
V\u9676
p4826
sI4826
V\u5b57
p4827
sI4827
V\u6eb7
p4828
sI4828
V\u6cc3
p4829
sI4829
V\u59fb
p4831
sI4831
V\u679c
p4832
sI4832
V\u6d1a
p4833
sI4833
V\u6c93
p4834
sI4834
V\u826f
p4835
sI4835
V\u6b86
p4836
sI4836
V\u7b56
p4837
sI4837
V\u5f3a
p4838
sI4838
V\u892a
p4839
sI4839
V\u6c2e
p4840
sI4840
V\u821c
p4841
sI4841
V\u7c2a
p4842
sI4842
V\u8854
p4843
sI4843
V\u754c
p4844
sI4844
V\u84d1
p4845
sI4845
V\u6dfb
p4846
sI4846
V\u9a6e
p4847
sI4847
V\u70c2
p4848
sI4848
V\u653f
p4849
sI4849
V\u9e5e
p4850
sI4850
V\u6de4
p4851
sI4851
V\u665a
p4852
sI4852
V\u9b32
p4853
sI4853
V\u67b7
p4854
sI4854
V\u53a8
p4855
sI4855
V\u5830
p4856
sI4856
V\u53ef
p4857
sI4857
V\u5974
p4858
sI4858
V\u75e2
p4859
sI4859
V\u5a67
p4860
sI4860
V\u7826
p4861
sI4861
V\u73ca
p4862
sI4862
V\u5431
p4863
sI4863
V\u6f4d
p4864
sI4864
V\u5d82
p4865
sI4865
V\u64cd
p4866
sI4866
V\u72ee
p4867
sI4867
V\u5e4c
p4868
sI4868
V\u7530
p4869
sI4869
V\u59a4
p4870
sI4870
V\u556d
p4871
sI4871
V\u60df
p4872
sI4872
V\u8557
p4873
sI4873
V\u5939
p4874
sI4874
V\u4f24
p4875
sI4875
V\u79d2
p4876
sI4876
V\u5524
p4877
sI4877
V\u4e4f
p4878
sI4878
V\u7ebd
p4879
sI4879
V\u8e0c
p4880
sI4880
V\u68a2
p4881
sI4881
V\u6628
p4882
sI4882
V\u4fa6
p4883
sI4883
V\u7256
p4884
sI4884
V\u86db
p4885
sI4885
V\u78be
p4886
sI4886
V\u813f
p4887
sI4887
V\u7483
p4888
sI4888
V\u6b79
p4889
sI4889
V\u6c47
p4890
sI4890
V\u681c
p4891
sI4891
V\u4e1a
p4892
sI4892
V\u5ed2
p4893
sI4893
V\u8fc5
p4894
sI4894
V\u6167
p4895
sI4895
V\u5f67
p4896
sI4896
V\u6cd4
p4897
sI4897
V\u7784
p4898
sI4898
V\u5ae3
p4899
sI4899
V\u8c8a
p4900
sI4900
V\u7b5c
p4901
sI4901
V\u7572
p4902
sI4902
V\u968f
p4903
sI4903
V\u7002
p4904
sI4904
V\u55e8
p4905
sI4905
V\u95fb
p4906
sI4906
V\u6ede
p4907
sI4907
V\u51c3
p4908
sI4908
V\u548b
p4909
sI4909
V\u6ca4
p4911
sI4911
V\u57fc
p4912
sI4912
V\u6225
p4913
sI4913
V\u89c6
p4914
sI4914
V\u8feb
p4915
sI4915
V\u6bd3
p4916
sI4916
V\u6155
p4917
sI4917
V\u6e5b
p4918
sI4918
V\u8c79
p4919
sI4919
V\u8f73
p4920
sI4920
V\u7ffc
p4921
sI4921
V\u5c39
p4922
sI4922
V\u8c0a
p4923
sI4923
V\u73f0
p4924
sI4924
V\u5238
p4925
sI4925
V\u641e
p4926
sI4926
V\u9752
p4927
sI4927
V\u65ce
p4928
sI4928
V\u6765
p4929
sI4929
V\u87ba
p4930
sI4930
V\u60e0
p4931
sI4931
V\u5355
p4932
sI4932
V\u5c88
p4933
sI4933
V\u5f15
p4934
sI4934
V\u6fd1
p4935
sI4935
V\u86ce
p4936
sI4936
V\u5510
p4937
sI4937
V\u69df
p4938
sI4938
V\u9095
p4939
sI4939
V\u57d7
p4940
sI4940
V\u6396
p4941
sI4941
V\u5b9b
p4942
sI4942
V\u6886
p4943
sI4943
V\u9ed4
p4944
sI4944
V\u9e45
p4945
sI4945
V\u535a
p4946
sI4946
V\u7ab5
p4947
sI4947
V\u7099
p4948
sI4948
V\u9a97
p4949
sI4949
V\u8f98
p4950
sI4950
V\u68a6
p4951
sI4951
V\u9530
p4952
sI4952
V\u5f1b
p4953
sI4953
V\u9e44
p4954
sI4954
V\u53e3
p4955
sI4955
V\u86ee
p4956
sI4956
V\u96f9
p4957
sI4957
V\u4fa3
p4958
sI4958
V\u6603
p4959
sI4959
V\u5df3
p4960
sI4960
V\u5cba
p4961
sI4961
V\u67b0
p4962
sI4962
V\u703c
p4963
sI4963
V\u8302
p4964
sI4964
V\u8350
p4965
sI4965
V\u8708
p4966
sI4966
V\u4e25
p4967
sI4967
V\u722c
p4968
sI4968
V\u5199
p4969
sI4969
V\u51b3
p4970
sI4970
V\u5776
p4971
sI4971
V\u5ce7
p4972
sI4972
V\u9552
p4973
sI4973
V\u72ed
p4974
sI4974
V\u8324
p4975
sI4975
V\u54d1
p4976
sI4976
V\u5167
p4977
sI4977
V\u6e89
p4978
sI4978
V\u72af
p4979
sI4979
V\u4f3a
p4980
sI4980
V\u907f
p4981
sI4981
V\u80ef
p4982
sI4982
V\u9f84
p4983
sI4983
V\u9988
p4984
sI4984
V\u6ce0
p4985
sI4985
V\u6cf0
p4986
sI4986
V\u948a
p4987
sI4987
V\u78d9
p4988
sI4988
V\u6263
p4989
sI4989
V\u556a
p4990
sI4990
V\u7528
p4991
sI4991
V\u78f7
p4992
sI4992
V\u62a2
p4993
sI4993
V\u5e1c
p4994
sI4994
V\u63ed
p4995
sI4995
V\u80a4
p4996
sI4996
V\u82c1
p4997
sI4997
V\u6289
p4998
sI4998
V\u73d1
p4999
sI4999
V\u6a35
p5000
sI5000
V\u90c5
p5001
sI5001
V\u95ee
p5002
sI5002
V\u8f76
p5003
sI5003
V\u7845
p5004
sI5004
V\u8d6d
p5005
sI5005
V\u745e
p5006
sI5006
V\u8760
p5007
sI5007
V\u4ffa
p5008
sI5008
V\u714a
p5009
sI5009
V\u58e4
p5010
sI5010
V\u662f
p5011
sI5011
V\u79bd
p5012
sI5012
V\u81ec
p5013
sI5013
V\u7424
p5014
sI5014
V\u5514
p5015
sI5015
V\u8be4
p5016
sI5016
V\u62e2
p5017
sI5017
V\u80d9
p5018
sI5018
V\u90b4
p5019
sI5019
V\u51c4
p5020
sI5020
V\u7b19
p5021
sI5021
V\u51d1
p5022
sI5022
V\u82ad
p5023
sI5023
V\u94a0
p5024
sI5024
V\u5403
p5025
sI5025
V\u7678
p5026
sI5026
V\u5965
p5027
sI5027
V\u5267
p5028
sI5028
V\u7843
p5029
sI5029
V\u6652
p5030
sI5030
V\u85c1
p5031
sI5031
V\u78d1
p5032
sI5032
V\u75c7
p5033
sI5033
V\u4f38
p5034
sI5034
V\u6d38
p5035
sI5035
V\u8478
p5036
sI5036
V\u6496
p5037
sI5037
V\u9a84
p5038
sI5038
V\u5d3e
p5039
sI5039
V\u86a7
p5040
sI5040
V\u6c4e
p5041
sI5041
V\u76df
p5042
sI5042
V\u94fe
p5043
sI5043
V\u5b85
p5044
sI5044
V\u6b7c
p5045
sI5045
V\u60a8
p5046
sI5046
V\u67d2
p5047
sI5047
V\u80ed
p5048
sI5048
V\u8c29
p5049
sI5049
V\u9c7f
p5050
sI5050
V\u74aa
p5051
sI5051
V\u6da1
p5052
sI5052
V\u9a7c
p5053
sI5053
V\u8884
p5054
sI5054
V\u5914
p5055
sI5055
V\u70e4
p5056
sI5056
V\u9650
p5057
sI5057
V\u5e42
p5058
sI5058
V\u65e5
p5059
sI5059
V\u7eb5
p5060
sI5060
V\u9ea6
p5061
sI5061
V\u6f14
p5062
sI5062
V\u66f4
p5063
sI5063
V\u58d5
p5064
sI5064
V\u6e87
p5065
sI5065
V\u534f
p5067
sI5067
V\u8f9e
p5068
sI5068
V\u6d95
p5069
sI5069
V\u5eb7
p5070
sI5070
V\u536f
p5071
sI5071
V\u7f29
p5072
sI5072
V\u75b1
p5073
sI5073
V\u4edf
p5074
sI5074
V\u578e
p5075
sI5075
V\u7264
p5076
sI5076
V\u90e2
p5077
sI5077
V\u9690
p5078
sI5078
V\u9880
p5079
sI5079
V\u7b50
p5080
sI5080
V\u6eb6
p5081
sI5081
V\u79f8
p5082
sI5082
V\u5401
p5083
sI5083
V\u776c
p5084
sI5084
V\u64b0
p5085
sI5085
V\u81a8
p5086
sI5086
V\u6b8a
p5087
sI5087
V\u67b8
p5088
sI5088
V\u5979
p5089
sI5089
V\u5835
p5090
sI5090
V\u7f5f
p5091
sI5091
V\u5766
p5092
sI5092
V\u8bdb
p5093
sI5093
V\u6b89
p5094
sI5094
V\u7ae0
p5095
sI5095
V\u51b5
p5096
sI5096
V\u6ed3
p5097
sI5097
V\u8431
p5098
sI5098
V\u7eeb
p5099
sI5099
V\u87d2
p5100
sI5100
V\u6ee2
p5101
sI5101
V\u5b5f
p5102
sI5102
V\u789b
p5103
sI5103
V\u8bc0
p5104
sI5104
V\u8f87
p5105
sI5105
V\u7601
p5106
sI5106
V\u5fa1
p5107
sI5107
V\u8bcf
p5108
sI5108
V\u740f
p5109
sI5109
V\u55b7
p5110
sI5110
V\u8bcd
p5111
sI5111
V\u9664
p5112
sI5112
V\u8815
p5113
sI5113
V\u75b9
p5114
sI5114
V\u65c3
p5115
sI5115
V\u94c4
p5116
sI5116
V\u82e5
p5117
sI5117
V\u57ab
p5118
sI5118
V\u695e
p5119
sI5119
V\u8f9b
p5120
sI5120
V\u603b
p5121
sI5121
V\u6864
p5122
sI5122
V\u7ec6
p5123
sI5123
V\u9104
p5124
sI5124
V\u516b
p5125
sI5125
V\u7a97
p5126
sI5126
V\u6fde
p5127
sI5127
V\u865a
p5128
sI5128
V\u78c5
p5129
sI5129
V\u5367
p5130
sI5130
V\u6f2b
p5131
sI5131
V\u8270
p5132
sI5132
V\u6323
p5133
sI5133
V\u6627
p5134
sI5134
V\u81ba
p5135
sI5135
V\u75a4
p5136
sI5136
V\u4f20
p5137
sI5137
V\u8bb8
p5138
sI5138
V\u6599
p5139
sI5139
V\u8404
p5140
sI5140
V\u8c2f
p5141
sI5141
V\u507f
p5142
sI5142
V\u8a07
p5143
sI5143
V\u6f66
p5144
sI5144
V\u7a0e
p5145
sI5145
V\u6df9
p5146
sI5146
V\u7bfc
p5147
sI5147
V\u6ee6
p5148
sI5148
V\u6382
p5149
sI5149
V\u57da
p5150
sI5150
V\u7ee7
p5151
sI5151
V\u5bfb
p5152
sI5152
V\u6109
p5153
sI5153
V\u536e
p5154
sI5154
V\u70ef
p5155
sI5155
V\u6982
p5156
sI5156
V\u6b32
p5157
sI5157
V\u80b2
p5158
sI5158
V\u8bc1
p5159
sI5159
V\u5188
p5160
sI5160
V\u52ab
p5161
sI5161
V\u86e4
p5162
sI5162
V\u5b8f
p5163
sI5163
V\u6492
p5164
sI5164
V\u831c
p5165
sI5165
V\u99a5
p5166
sI5166
V\u5871
p5167
sI5167
V\u5944
p5168
sI5168
V\u6536
p5169
sI5169
V\u8fd1
p5170
sI5170
V\u9123
p5171
sI5171
V\u90fd
p5172
sI5172
V\u5983
p5173
sI5173
V\u730e
p5174
sI5174
V\u8bc5
p5175
sI5175
V\u54c8
p5176
sI5176
V\u572d
p5177
sI5177
V\u9120
p5178
sI5178
V\u623d
p5179
sI5179
V\u4ea4
p5180
sI5180
V\u737e
p5181
sI5181
V\u9e21
p5182
sI5182
V\u835e
p5183
sI5183
V\u4ee1
p5184
sI5184
V\u82ac
p5185
sI5185
V\u5ed6
p5186
sI5186
V\u96e9
p5187
sI5187
V\u8bdc
p5188
sI5188
V\u849f
p5189
sI5189
V\u6bdb
p5190
sI5190
V\u869d
p5191
sI5191
V\u602f
p5192
sI5192
V\u5f01
p5193
sI5193
V\u625b
p5194
sI5194
V\u4ec7
p5195
sI5195
V\u5a9a
p5196
sI5196
V\u68ee
p5197
sI5197
V\u7095
p5198
sI5198
V\u5df1
p5199
sI5199
V\u5e06
p5200
sI5200
V\u8c1b
p5201
sI5201
V\u571f
p5202
sI5202
V\u6332
p5203
sI5203
V\u914d
p5204
sI5204
V\u9cae
p5205
sI5205
V\u9f20
p5206
sI5206
V\u5b97
p5207
sI5207
V\u6b3a
p5208
sI5208
V\u8151
p5209
sI5209
V\u91c9
p5210
sI5210
V\u6687
p5211
sI5211
V\u9e70
p5212
sI5212
V\u68d5
p5213
sI5213
V\u75d2
p5214
sI5214
V\u848c
p5215
sI5215
V\u6872
p5216
sI5216
V\u5c72
p5217
sI5217
V\u961a
p5218
sI5218
V\u764c
p5219
sI5219
V\u5e9a
p5220
sI5220
V\u75f0
p5221
sI5221
V\u7eb6
p5222
sI5222
V\u723f
p5223
sI5223
V\u9a9e
p5224
sI5224
V\u59d4
p5225
sI5225
V\u8306
p5226
sI5226
V\u5d60
p5227
sI5227
V\u62d6
p5228
sI5228
V\u6d4f
p5229
sI5229
V\u9e3e
p5230
sI5230
V\u63a7
p5231
sI5231
V\u8bb3
p5232
sI5232
V\u6a21
p5233
sI5233
V\u840e
p5234
sI5234
V\u58f3
p5235
sI5235
V\u678c
p5236
sI5236
V\u749c
p5237
sI5237
V\u54f1
p5238
sI5238
V\u75c9
p5239
sI5239
V\u58c1
p5240
sI5240
V\u5962
p5241
sI5241
V\u5459
p5242
sI5242
V\u62a8
p5243
sI5243
V\u7fe5
p5244
sI5244
V\u8110
p5245
sI5245
V\u5d34
p5246
sI5246
V\u5fbd
p5247
sI5247
V\u6e2f
p5248
sI5248
V\u5954
p5249
sI5249
V\u745a
p5250
sI5250
V\u60f3
p5251
sI5251
V\u6bd7
p5252
sI5252
V\u67a3
p5253
sI5253
V\u547c
p5254
sI5254
V\u6b7b
p5255
sI5255
V\u8def
p5256
sI5256
V\u6392
p5257
sI5257
V\u71a8
p5258
sI5258
V\u9891
p5259
sI5259
V\u556e
p5260
sI5260
V\u70b3
p5261
sI5261
V\u7ed8
p5262
sI5262
V\u6666
p5263
sI5263
V\u5763
p5264
sI5264
V\u8c1c
p5265
sI5265
V\u57f8
p5266
sI5266
V\u7f57
p5267
sI5267
V\u840d
p5268
sI5268
V\u4fcf
p5269
sI5269
V\u6f20
p5270
sI5270
V\u6be1
p5271
sI5271
V\u9621
p5272
sI5272
V\u65d6
p5273
sI5273
V\u656c
p5274
sI5274
V\u789f
p5275
sI5275
V\u5a05
p5276
sI5276
V\u82db
p5277
sI5277
V\u7118
p5278
sI5278
V\u5931
p5279
sI5279
V\u9647
p5280
sI5280
V\u5792
p5281
sI5281
V\u9675
p5282
sI5282
V\u987f
p5283
sI5283
V\u5241
p5284
sI5284
V\u8225
p5285
sI5285
V\u6c28
p5286
sI5286
V\u5458
p5287
sI5287
V\u9a7f
p5288
sI5288
V\u6715
p5289
sI5289
V\u5018
p5290
sI5290
V\u67d3
p5291
sI5291
V\u7c9c
p5292
sI5292
V\u96cc
p5293
sI5293
V\u4ed6
p5294
sI5294
V\u8baa
p5295
sI5295
V\u76f1
p5296
sI5296
V\u5171
p5297
sI5297
V\u67b9
p5298
sI5298
V\u4ecd
p5299
sI5299
V\u901b
p5300
sI5300
V\u5b8b
p5301
sI5301
V\u9e6d
p5302
sI5302
V\u59ca
p5303
sI5303
V\u8349
p5304
sI5304
V\u7529
p5305
sI5305
V\u7741
p5306
sI5306
V\u5f89
p5307
sI5307
V\u6e83
p5308
sI5308
V\u8c27
p5309
sI5309
V\u77d7
p5310
sI5310
V\u63cf
p5311
sI5311
V\u79cd
p5312
sI5312
V\u82e7
p5313
sI5313
V\u6252
p5314
sI5314
V\u6ec1
p5315
sI5315
V\u8086
p5316
sI5316
V\u74dc
p5317
sI5317
V\u90bd
p5318
sI5318
V\u6baa
p5319
sI5319
V\u595a
p5320
sI5320
V\u589a
p5321
sI5321
V\u5149
p5322
sI5322
V\u5e62
p5323
sI5323
V\u6e0a
p5324
sI5324
V\u8651
p5325
sI5325
V\u57d4
p5326
sI5326
V\u6eda
p5327
sI5327
V\u952d
p5328
sI5328
V\u6851
p5329
sI5329
V\u4e71
p5330
sI5330
V\u938f
p5331
sI5331
V\u94f1
p5332
sI5332
V\u630e
p5333
sI5333
V\u9e1f
p5334
sI5334
V\u6398
p5335
sI5335
V\u9cde
p5336
sI5336
V\u83f8
p5337
sI5337
V\u5d0e
p5338
sI5338
V\u5f2f
p5339
sI5339
V\u600e
p5340
sI5340
V\u9020
p5341
sI5341
V\u829c
p5342
sI5342
V\u6405
p5343
sI5343
V\u66a8
p5344
sI5344
V\u572e
p5345
sI5345
V\u503c
p5346
sI5346
V\u5f7c
p5347
sI5347
V\u67cf
p5348
sI5348
V\u8425
p5349
sI5349
V\u8862
p5350
sI5350
V\u4fa8
p5351
sI5351
V\u7847
p5352
sI5352
V\u73e0
p5353
sI5353
V\u7a1e
p5354
sI5354
V\u90d3
p5355
sI5355
V\u75b2
p5356
sI5356
V\u54a7
p5357
sI5357
V\u5a40
p5358
sI5358
V\u85d5
p5359
sI5359
V\u9537
p5360
sI5360
V\u6989
p5361
sI5361
V\u784b
p5362
sI5362
V\u642d
p5363
sI5363
V\u5eff
p5364
sI5364
V\u9a95
p5365
sI5365
V\u84e6
p5366
sI5366
V\u4e66
p5367
sI5367
V\u63cd
p5368
sI5368
V\u5b58
p5369
sI5369
V\u8c46
p5370
sI5370
V\u65e6
p5371
sI5371
V\u6dd1
p5372
sI5372
V\u4e03
p5373
sI5373
V\u9b45
p5374
sI5374
V\u7941
p5375
sI5375
V\u4e11
p5376
sI5376
V\u5272
p5377
sI5377
V\u6276
p5378
sI5378
V\u9014
p5379
sI5379
V\u7fd9
p5380
sI5380
V\u5e9f
p5381
sI5381
V\u746d
p5382
sI5382
V\u9646
p5383
sI5383
V\u508c
p5384
sI5384
V\u6ca3
p5385
sI5385
V\u6726
p5386
sI5386
V\u8a3e
p5387
sI5387
V\u5d6b
p5388
sI5388
V\u711a
p5389
sI5389
V\u4fee
p5391
sI5391
V\u5feb
p5392
sI5392
V\u631a
p5393
sI5393
V\u7ae3
p5394
sI5394
V\u5ca9
p5395
sI5395
V\u7d2f
p5396
sI5396
V\u8bd7
p5397
sI5397
V\u7f72
p5398
sI5398
V\u9f9a
p5399
sI5399
V\u6177
p5400
sI5400
V\u9888
p5401
sI5401
V\u6d46
p5402
sI5402
V\u65a2
p5403
sI5403
V\u6e3a
p5404
sI5404
V\u64e6
p5405
sI5405
V\u7779
p5406
sI5406
V\u5d2e
p5407
sI5407
V\u7a02
p5408
sI5408
V\u7334
p5409
sI5409
V\u4f84
p5410
sI5410
V\u9162
p5411
sI5411
V\u6280
p5412
sI5412
V\u868d
p5413
sI5413
V\u65c1
p5414
sI5414
V\u9f9b
p5415
sI5415
V\u6da7
p5416
sI5416
V\u83f0
p5417
sI5417
V\u9698
p5418
sI5418
V\u6a71
p5419
sI5419
V\u7afa
p5420
sI5420
V\u6c60
p5421
sI5421
V\u8386
p5422
sI5422
V\u5d24
p5423
sI5423
V\u5384
p5424
sI5424
V\u55e1
p5425
sI5425
V\u5b75
p5426
sI5426
V\u5880
p5427
sI5427
V\u91b4
p5428
sI5428
V\u7109
p5429
sI5429
V\u9e43
p5430
sI5430
V\u5799
p5431
sI5431
V\u6572
p5432
sI5432
V\u5dde
p5433
sI5433
V\u8521
p5434
sI5434
V\u8e6d
p5435
sI5435
V\u80ce
p5436
sI5436
V\u90f4
p5437
sI5437
V\u7eed
p5438
sI5438
V\u660e
p5439
sI5439
V\u90a0
p5440
sI5440
V\u6d59
p5441
sI5441
V\u5f6c
p5442
sI5442
V\u8d99
p5443
sI5443
V\u88d5
p5444
sI5444
V\u88f3
p5445
sI5445
V\u84ba
p5446
sI5446
V\u9561
p5447
sI5447
V\u5a09
p5448
sI5448
V\u7d22
p5449
sI5449
V\u90f8
p5450
sI5450
V\u7329
p5451
sI5451
V\u70e9
p5452
sI5452
V\u61c2
p5453
sI5453
V\u5ead
p5454
sI5454
V\u5a03
p5455
sI5455
V\u5de1
p5456
sI5456
V\u8c15
p5457
sI5457
V\u5236
p5458
sI5458
V\u5889
p5459
sI5459
V\u7ed9
p5460
sI5460
V\u7910
p5461
sI5461
V\u626e
p5462
sI5462
V\u8fdf
p5463
sI5463
V\u59af
p5464
sI5464
V\u62e8
p5465
sI5465
V\u5242
p5466
sI5466
V\u577d
p5467
sI5467
V\u536b
p5468
sI5468
V\u6885
p5469
sI5469
V\u8399
p5470
sI5470
V\u6d45
p5471
sI5471
V\u9aa7
p5472
sI5472
V\u7279
p5473
sI5473
V\u8d26
p5474
sI5474
V\u514b
p5475
sI5475
V\u81fe
p5476
sI5476
V\u7968
p5477
sI5477
V\u53d8
p5478
sI5478
V\u77eb
p5479
sI5479
V\u6ea7
p5480
sI5480
V\u4e60
p5481
sI5481
V\u706d
p5482
sI5482
V\u90be
p5483
sI5483
V\u602a
p5484
sI5484
V\u53f3
p5485
sI5485
V\u870d
p5486
sI5486
V\u9c85
p5487
sI5487
V\u5428
p5488
sI5488
V\u560e
p5489
sI5489
V\u97f6
p5490
sI5490
V\u8446
p5491
sI5491
V\u901d
p5492
sI5492
V\u731b
p5493
sI5493
V\u7bb1
p5494
sI5494
V\u8db5
p5495
sI5495
V\u6ed5
p5496
sI5496
V\u590f
p5497
sI5497
V\u6292
p5498
sI5498
V\u6813
p5499
sI5499
V\u7fe0
p5500
sI5500
V\u8c49
p5501
sI5501
V\u4f5b
p5502
sI5502
V\u8fd4
p5503
sI5503
V\u4e89
p5504
sI5504
V\u6613
p5505
sI5505
V\u66ff
p5506
sI5506
V\u803f
p5507
sI5507
V\u752b
p5508
sI5508
V\u9565
p5509
sI5509
V\u9a9a
p5510
sI5510
V\u725f
p5511
sI5511
V\u6c76
p5512
sI5512
V\u95f8
p5513
sI5513
V\u8543
p5514
sI5514
V\u70ab
p5515
sI5515
V\u8902
p5516
sI5516
V\u8650
p5517
sI5517
V\u6555
p5518
sI5518
V\u78c9
p5519
sI5519
V\u9080
p5520
sI5520
V\u901a
p5521
sI5521
V\u8102
p5522
sI5522
V\u83e1
p5523
sI5523
V\u5907
p5524
sI5524
V\u5ac2
p5525
sI5525
V\u9550
p5526
sI5526
V\u9577
p5527
sI5527
V\u80c1
p5528
sI5528
V\u799a
p5529
sI5529
V\u71a0
p5530
sI5530
V\u5c24
p5531
sI5531
V\u5795
p5532
sI5532
V\u7696
p5533
sI5533
V\u80af
p5534
sI5534
V\u5c22
p5535
sI5535
V\u51db
p5536
sI5536
V\u785a
p5537
sI5537
V\u57fa
p5538
sI5538
V\u90d0
p5539
sI5539
V\u6d47
p5540
sI5540
V\u9554
p5541
sI5541
V\u659c
p5542
sI5542
V\u579f
p5543
sI5543
V\u6b47
p5544
sI5544
V\u6deb
p5545
sI5545
V\u7762
p5546
sI5546
V\u55cc
p5547
sI5547
V\u9cca
p5548
sI5548
V\u72c8
p5549
sI5549
V\u9489
p5550
sI5550
V\u65a5
p5551
sI5551
V\u6728
p5552
sI5552
V\u97ee
p5553
sI5553
V\u577c
p5554
sI5554
V\u5bab
p5555
sI5555
V\u54d3
p5556
sI5556
V\u827b
p5557
sI5557
V\u60f0
p5558
sI5558
V\u572c
p5559
sI5559
V\u5c71
p5560
sI5560
V\u6ee3
p5561
sI5561
V\u800c
p5562
sI5562
V\u73d9
p5563
sI5563
V\u8beb
p5564
sI5564
V\u7441
p5565
sI5565
V\u65c4
p5566
sI5566
V\u9497
p5567
sI5567
V\u6325
p5568
sI5568
V\u76c8
p5569
sI5569
V\u859c
p5570
sI5570
V\u62c4
p5571
sI5571
V\u5fe0
p5572
sI5572
V\u7729
p5573
sI5573
V\u8981
p5574
sI5574
V\u592e
p5575
sI5575
V\u961f
p5576
sI5576
V\u659b
p5577
sI5577
V\u5cc7
p5578
sI5578
V\u66fc
p5579
sI5579
V\u54d4
p5580
sI5580
V\u8dcb
p5581
sI5581
V\u4ea5
p5582
sI5582
V\u6345
p5583
sI5583
V\u6c30
p5584
sI5584
V\u9688
p5585
sI5585
V\u7235
p5586
sI5586
V\u7395
p5587
sI5587
V\u8bf7
p5588
sI5588
V\u6600
p5589
sI5589
V\u7a92
p5590
sI5590
V\u7c9f
p5591
sI5591
V\u88e2
p5592
sI5592
V\u9190
p5593
sI5593
V\u6f8d
p5595
sI5595
V\u5fd8
p5596
sI5596
V\u7bc6
p5597
sI5597
V\u8611
p5598
sI5598
V\u6e2d
p5599
sI5599
V\u6e32
p5600
sI5600
V\u7422
p5601
sI5601
V\u94e3
p5602
sI5602
V\u5bf9
p5603
sI5603
V\u57ce
p5604
sI5604
V\u8585
p5605
sI5605
V\u77bf
p5606
sI5606
V\u94ff
p5607
sI5607
V\u723b
p5608
sI5608
V\u63b3
p5609
sI5609
V\u52df
p5610
sI5610
V\u4ed8
p5611
sI5611
V\u82dc
p5612
sI5612
V\u6ca5
p5613
sI5613
V\u9c92
p5614
sI5614
V\u7736
p5615
sI5615
V\u6f2d
p5616
sI5616
V\u9111
p5617
sI5617
V\u86df
p5618
sI5618
V\u6d6f
p5619
sI5619
V\u5d1e
p5620
sI5620
V\u82cc
p5621
sI5621
V\u4eec
p5622
sI5622
V\u8fe6
p5623
sI5623
V\u65cf
p5624
sI5624
V\u9699
p5625
sI5625
V\u62df
p5626
sI5626
V\u7889
p5627
sI5627
V\u8f8b
p5628
s.